
CH32V203USBKEY.elf:     file format elf32-littleriscv
CH32V203USBKEY.elf
architecture: riscv:rv32, flags 0x00000112:
EXEC_P, HAS_SYMS, D_PAGED
start address 0x00000000

Program Header:
    LOAD off    0x00001000 vaddr 0x00000000 paddr 0x00000000 align 2**12
         filesz 0x00006d2c memsz 0x00006d2c flags r-x
    LOAD off    0x00008000 vaddr 0x20000000 paddr 0x00006d2c align 2**12
         filesz 0x00000250 memsz 0x000018a8 flags rw-
    LOAD off    0x00008800 vaddr 0x20004800 paddr 0x20004800 align 2**12
         filesz 0x00000000 memsz 0x00000800 flags rw-

Sections:
Idx Name          Size      VMA       LMA       File off  Algn
  0 .init         00000004  00000000  00000000  00001000  2**1
                  CONTENTS, ALLOC, LOAD, READONLY, CODE
  1 .vector       000000fc  00000004  00000004  00001004  2**1
                  CONTENTS, ALLOC, LOAD, READONLY, CODE
  2 .text         00006c2c  00000100  00000100  00001100  2**2
                  CONTENTS, ALLOC, LOAD, READONLY, CODE
  3 .fini         00000000  00006d2c  00006d2c  00008250  2**0
                  CONTENTS, ALLOC, LOAD, CODE
  4 .dalign       00000000  20000000  20000000  00008250  2**0
                  CONTENTS
  5 .dlalign      00000000  00006d2c  00006d2c  00008250  2**0
                  CONTENTS
  6 .data         00000250  20000000  00006d2c  00008000  2**2
                  CONTENTS, ALLOC, LOAD, DATA
  7 .bss          00001658  20000250  00006f7c  00008250  2**2
                  ALLOC
  8 .stack        00000800  20004800  20004800  00008800  2**0
                  ALLOC
  9 .debug_info   0001bd97  00000000  00000000  00008250  2**0
                  CONTENTS, READONLY, DEBUGGING
 10 .debug_abbrev 00004328  00000000  00000000  00023fe7  2**0
                  CONTENTS, READONLY, DEBUGGING
 11 .debug_loc    00007ce4  00000000  00000000  0002830f  2**0
                  CONTENTS, READONLY, DEBUGGING
 12 .debug_aranges 00000cc8  00000000  00000000  0002fff8  2**3
                  CONTENTS, READONLY, DEBUGGING
 13 .debug_ranges 00000d90  00000000  00000000  00030cc0  2**3
                  CONTENTS, READONLY, DEBUGGING
 14 .debug_line   000156c9  00000000  00000000  00031a50  2**0
                  CONTENTS, READONLY, DEBUGGING
 15 .debug_str    000040cc  00000000  00000000  00047119  2**0
                  CONTENTS, READONLY, DEBUGGING
 16 .comment      00000033  00000000  00000000  0004b1e5  2**0
                  CONTENTS, READONLY
 17 .debug_frame  00002d14  00000000  00000000  0004b218  2**2
                  CONTENTS, READONLY, DEBUGGING
 18 .stab         00000084  00000000  00000000  0004df2c  2**2
                  CONTENTS, READONLY, DEBUGGING
 19 .stabstr      00000117  00000000  00000000  0004dfb0  2**0
                  CONTENTS, READONLY, DEBUGGING
SYMBOL TABLE:
00000000 l    d  .init	00000000 .init
00000004 l    d  .vector	00000000 .vector
00000100 l    d  .text	00000000 .text
00006d2c l    d  .fini	00000000 .fini
20000000 l    d  .dalign	00000000 .dalign
00006d2c l    d  .dlalign	00000000 .dlalign
20000000 l    d  .data	00000000 .data
20000250 l    d  .bss	00000000 .bss
20004800 l    d  .stack	00000000 .stack
00000000 l    d  .debug_info	00000000 .debug_info
00000000 l    d  .debug_abbrev	00000000 .debug_abbrev
00000000 l    d  .debug_loc	00000000 .debug_loc
00000000 l    d  .debug_aranges	00000000 .debug_aranges
00000000 l    d  .debug_ranges	00000000 .debug_ranges
00000000 l    d  .debug_line	00000000 .debug_line
00000000 l    d  .debug_str	00000000 .debug_str
00000000 l    d  .comment	00000000 .comment
00000000 l    d  .debug_frame	00000000 .debug_frame
00000000 l    d  .stab	00000000 .stab
00000000 l    d  .stabstr	00000000 .stabstr
00000000 l    df *ABS*	00000000 ./Startup/startup_ch32v20x_D6.o
00000004 l       .vector	00000000 _vector_base
00000000 l    df *ABS*	00000000 USB_KB_Key_app.c
200001c0 l     O .data	00000004 start_count_down.5219
00000000 l    df *ABS*	00000000 ch32v20x_usbfs_host.c
000014b2 l     F .text	00000026 USBFSH_SetSelfSpeed.part.0
200001e4 l     O .data	00000008 SetupClearEndpStall
200001ec l     O .data	00000008 SetupGetCfgDesc
200001f4 l     O .data	00000008 SetupGetDevDesc
200001fc l     O .data	00000008 SetupGetStrDesc
20000204 l     O .data	00000008 SetupSetAddr
2000020c l     O .data	00000008 SetupSetConfig
00000000 l    df *ABS*	00000000 usb_host_hid.c
20000214 l     O .data	00000008 SetupGetHidDes
2000021c l     O .data	00000008 SetupSetReport
20000224 l     O .data	00000008 SetupSetidle
00000000 l    df *ABS*	00000000 usb_host_hub.c
2000022c l     O .data	00000008 ClearPortFeature
20000234 l     O .data	00000008 GetHubDescr
2000023c l     O .data	00000008 GetPortStatus
20000244 l     O .data	00000008 SetPortFeature
00000000 l    df *ABS*	00000000 oled.c
2000107c l     O .bss	00000400 SSD1306_Buffer
20000250 l     O .bss	00000006 SSD1306
00000000 l    df *ABS*	00000000 ch32v20x_it.c
00000000 l    df *ABS*	00000000 main.c
00000000 l    df *ABS*	00000000 morse_send.c
20000278 l     O .bss	00000004 count.4751
00000000 l    df *ABS*	00000000 system_ch32v20x.c
00000000 l    df *ABS*	00000000 ch32v20x_dbgmcu.c
00000000 l    df *ABS*	00000000 ch32v20x_flash.c
00000000 l    df *ABS*	00000000 ch32v20x_gpio.c
00000000 l    df *ABS*	00000000 ch32v20x_i2c.c
00000000 l    df *ABS*	00000000 ch32v20x_misc.c
00000000 l    df *ABS*	00000000 ch32v20x_rcc.c
2000014c l     O .data	00000010 APBAHBPrescTable
200001d8 l     O .data	00000004 ADCPrescTable
00000000 l    df *ABS*	00000000 ch32v20x_tim.c
00000000 l    df *ABS*	00000000 ch32v20x_usart.c
00000000 l    df *ABS*	00000000 debug.c
20000288 l     O .bss	00000002 p_ms
2000028a l     O .bss	00000001 p_us
200001dc l     O .data	00000004 curbrk.4673
00000000 l    df *ABS*	00000000 memchr.c
00000000 l    df *ABS*	00000000 memcpy.c
00000000 l    df *ABS*	00000000 printf.c
00000000 l    df *ABS*	00000000 puts.c
00000000 l    df *ABS*	00000000 sprintf.c
00000000 l    df *ABS*	00000000 strcpy.c
00000000 l    df *ABS*	00000000 strlen.c
00000000 l    df *ABS*	00000000 wbuf.c
00000000 l    df *ABS*	00000000 wsetup.c
00000000 l    df *ABS*	00000000 fflush.c
00000000 l    df *ABS*	00000000 findfp.c
000044f8 l     F .text	00000066 std
00000000 l    df *ABS*	00000000 fwalk.c
00000000 l    df *ABS*	00000000 makebuf.c
00000000 l    df *ABS*	00000000 nano-mallocr.c
00000000 l    df *ABS*	00000000 nano-mallocr.c
00000000 l    df *ABS*	00000000 nano-vfprintf.c
00000000 l    df *ABS*	00000000 nano-vfprintf.c
00004cde l     F .text	00000028 __sfputc_r
00000000 l    df *ABS*	00000000 nano-vfprintf_i.c
00000000 l    df *ABS*	00000000 sbrkr.c
00000000 l    df *ABS*	00000000 stdio.c
00000000 l    df *ABS*	00000000 writer.c
00000000 l    df *ABS*	00000000 closer.c
00000000 l    df *ABS*	00000000 fstatr.c
00000000 l    df *ABS*	00000000 isattyr.c
00000000 l    df *ABS*	00000000 lseekr.c
00000000 l    df *ABS*	00000000 memmove.c
00000000 l    df *ABS*	00000000 mlock.c
00000000 l    df *ABS*	00000000 nano-mallocr.c
00000000 l    df *ABS*	00000000 readr.c
00000000 l    df *ABS*	00000000 nano-mallocr.c
00000000 l    df *ABS*	00000000 close.c
00000000 l    df *ABS*	00000000 fstat.c
00000000 l    df *ABS*	00000000 isatty.c
00000000 l    df *ABS*	00000000 lseek.c
00000000 l    df *ABS*	00000000 read.c
00000000 l    df *ABS*	00000000 fonts.c
00000000 l    df *ABS*	00000000 impure.c
2000015c l     O .data	00000060 impure_data
00000000 l    df *ABS*	00000000 global.c
00000000 l    df *ABS*	00000000 reent.c
00005634 g     F .text	00000014 _malloc_usable_size_r
000035ac  w      .text	00000000 EXTI2_IRQHandler
00001c90 g     F .text	000000be I2C_WRITE_ONE_BYTE
000054fa g     F .text	00000030 _isatty_r
00000278 g     F .text	000001ee CombufDeal
00001ece g     F .text	0000000a SSD1306_GotoXY
00004188 g     F .text	00000010 strcpy
00003642 g     F .text	0000001a FLASH_Unlock
00004062 g     F .text	000000d4 _puts_r
0000552a g     F .text	00000034 _lseek_r
00003918 g     F .text	0000001a GPIO_ReadOutputDataBit
00004022 g     F .text	00000040 printf
200009c0 g       .data	00000000 __global_pointer$
00000108 g     F .text	00000028 .hidden __riscv_save_8
000035ac  w      .text	00000000 TIM1_CC_IRQHandler
00002c32 g     F .text	00000062 TIM2_ChangBase
2000147c g     O .bss	00000200 inputBuff
0000542c g     F .text	00000030 __sseek
000045ae g     F .text	0000006c __sinit
000041aa g     F .text	000000bc __swbuf_r
00002220 g     F .text	00000002 HardFault_Handler
000036ea g     F .text	00000054 FLASH_ProgramWord
00004568 g     F .text	00000046 __sfmoreglue
000055a6 g     F .text	00000002 __malloc_unlock
00001a4c g     F .text	00000020 USBFSH_ClearEndpStall
00000154 g     F .text	0000000c .hidden __riscv_restore_3
00000d6a g     F .text	0000002a HUB_CheckPortSpeed
00001e68 g     F .text	0000001c SSD1306_Fill
00002338 g     F .text	00000054 ReadConfig
000035ac  w      .text	00000000 SysTick_Handler
00003b0e g     F .text	00000054 NVIC_Init
00001ab0 g     F .text	0000003c USBFSH_SendEndpData
000035ac  w      .text	00000000 PVD_IRQHandler
000019f8 g     F .text	00000034 USBFSH_SetUsbAddress
0000555e g     F .text	00000046 memmove
00000140 g     F .text	00000020 .hidden __riscv_restore_10
0000221e g     F .text	00000002 NMI_Handler
000035ac  w      .text	00000000 EXTI3_IRQHandler
20000270 g     O .bss	00000001 stge
00000108 g     F .text	00000028 .hidden __riscv_save_11
00003638 g     F .text	0000000a DBGMCU_GetCHIPID
000014d8 g     F .text	00000042 USBFS_RCC_Init
00003dfa g     F .text	0000000a USART_GetFlagStatus
000054c8 g     F .text	00000032 _fstat_r
0000193a g     F .text	00000068 USBFSH_GetConfigDescr
20000ffc g     O .bss	00000040 USBFS_RX_Buf
200018a4 g     O .bss	00000004 errno
20000250 g       .bss	00000000 _sbss
00000800 g       *ABS*	00000000 __stack_size
00003e96 g     F .text	0000005a USART_Printf_Init
200006a8 g     O .bss	00000532 HostCtl
0000058e g     F .text	00000042 USBH_AnalyseType
000036ae g     F .text	0000003c FLASH_ErasePage
00001a2c g     F .text	00000020 USBFSH_SetUsbConfig
000035ac  w      .text	00000000 USBFS_IRQHandler
00000154 g     F .text	0000000c .hidden __riscv_restore_2
2000025c g     O .bss	00000004 inputBuffSize
00003f70 g     F .text	000000b2 memcpy
0000296e g     F .text	0000005e TIM4_Init
0000455e g     F .text	0000000a _cleanup_r
00004a74 g     F .text	0000026a _svfprintf_r
00001aec g     F .text	0000002a HID_GetHidDesr
000035ac  w      .text	00000000 EXTI0_IRQHandler
000035ac  w      .text	00000000 I2C2_EV_IRQHandler
00003cfe g     F .text	00000018 TIM_Cmd
00001b16 g     F .text	00000026 HID_SetReport
00004136 g     F .text	0000000c puts
20001688 g     O .bss	00000200 outputBuff
200001d4 g     O .data	00000004 SystemCoreClock
00005658 g     F .text	00000010 _fstat
00000004 g       .init	00000000 _einit
00003d40 g     F .text	0000000c TIM_ClearITPendingBit
00001f92 g     F .text	00000156 SSD1306_DrawLine
00003c58 g     F .text	0000001e RCC_APB2PeriphClockCmd
00000100 g     F .text	00000030 .hidden __riscv_save_12
00001f68 g     F .text	0000002a SSD1306_Puts
000035ac  w      .text	00000000 ADC1_2_IRQHandler
0000380c g     F .text	000000f2 GPIO_Init
000035ac  w      .text	00000000 Break_Point_Handler
00000140 g     F .text	00000020 .hidden __riscv_restore_11
20000284 g     O .bss	00000004 NVIC_Priority_Group
000035ac  w      .text	00000000 SPI1_IRQHandler
00003ddc g     F .text	00000016 USART_Cmd
00005386 g     F .text	00000032 _sbrk_r
000035ac  w      .text	00000000 TAMPER_IRQHandler
00000130 g     F .text	0000000c .hidden __riscv_save_1
20001888 g     O .bss	0000001a sendbuf
00000d94 g     F .text	000000d8 USBH_EnumHubPortDevice
00000154 g     F .text	0000000c .hidden __riscv_restore_0
00005600 g     F .text	00000034 _read_r
2000167c g     O .bss	0000000c msg
00000116 g     F .text	0000001a .hidden __riscv_save_7
20000264 g     O .bss	00000004 outputBuffSize
00003c76 g     F .text	0000001e RCC_APB1PeriphClockCmd
00002c94 g     F .text	00000058 add_wpm
000035ac  w      .text	00000000 Ecall_M_Mode_Handler
20004800 g       .stack	00000000 _heap_end
20000694 g     O .bss	00000012 DevDesc_Buf
00005668 g     F .text	00000010 _isatty
00003e2a g     F .text	00000036 Delay_Us
2000024c g     O .data	00000004 _global_impure_ptr
0000014a g     F .text	00000016 .hidden __riscv_restore_5
00005698 g     O .text	00000d5c Font11x18
000055a8 g     F .text	00000058 _realloc_r
00003c3a g     F .text	0000001e RCC_AHBPeriphClockCmd
000035ac  w      .text	00000000 DMA1_Channel4_IRQHandler
00003aaa g     F .text	00000004 I2C_SendData
00003f2e g     F .text	0000002a _sbrk
0000365c g     F .text	0000000e FLASH_Lock
0000394c g     F .text	000000f8 I2C_Init
0000014a g     F .text	00000016 .hidden __riscv_restore_6
000035ac  w      .text	00000000 USART3_IRQHandler
000035ac  w      .text	00000000 RTC_IRQHandler
200018a8 g       .bss	00000000 _ebss
00001b68 g     F .text	0000002c HUB_GetPortStatus
000035ac  w      .text	00000000 DMA1_Channel7_IRQHandler
00000a42 g     F .text	00000084 KM_DealHidReportDesc
20000260 g     O .bss	00000001 keyboard_in
000035ac  w      .text	00000000 CAN1_RX1_IRQHandler
00003e04 g     F .text	00000026 Delay_Init
00001df2 g     F .text	00000032 ssd1306_I2C_WriteMulti
00001bba g     F .text	00000026 HUB_SetPortFeature
00002b94 g     F .text	00000044 TIM4_IRQHandler
00000108 g     F .text	00000028 .hidden __riscv_save_9
00003932 g     F .text	0000001a GPIO_WriteBit
000020e8 g     F .text	00000136 SSD1306_Init
20000070 g     O .data	00000070 codmapWithShift
00003a5c g     F .text	0000001a I2C_GenerateSTART
00006c90 g     O .text	00000020 __sf_fake_stderr
00000116 g     F .text	0000001a .hidden __riscv_save_4
000035ac  w      .text	00000000 I2C1_EV_IRQHandler
00004990 g     F .text	000000e4 __ssputs_r
20000271 g     O .bss	00000001 key1
00003d28 g     F .text	00000018 TIM_GetITStatus
20000fdc g     O .bss	0000001f RootHubDev
000005d0 g     F .text	000000f4 USBH_EnumRootDevice
00003b7c g     F .text	000000be RCC_GetClocksFreq
000035ac  w      .text	00000000 DMA1_Channel6_IRQHandler
00004d06 g     F .text	00000042 __sfputs_r
000035ac  w      .text	00000000 UART4_IRQHandler
00003f58 g     F .text	00000018 memchr
00003d4c g     F .text	00000090 USART_Init
0000480e g     F .text	000000a8 _free_r
00000466 g     F .text	00000128 TIM3_IRQHandler
000035ac  w      .text	00000000 RCC_IRQHandler
00000130 g     F .text	0000000c .hidden __riscv_save_3
0000256c g     F .text	00000402 Disp
000035ac  w      .text	00000000 TIM1_TRG_COM_IRQHandler
000008b0 g     F .text	00000192 KM_AnalyzeHidReportDesc
000035ac  w      .text	00000000 DMA1_Channel1_IRQHandler
00000000 g       .init	00000000 _start
2000013c g     O .data	00000010 AHBPrescTable
00003ad6 g     F .text	00000032 I2C_GetFlagStatus
0000366a g     F .text	00000008 FLASH_ClearFlag
00005678 g     F .text	00000010 _lseek
20000294 g     O .bss	00000400 Com_Buf
0000368a g     F .text	00000024 FLASH_WaitForLastOperation
00000e6c g     F .text	0000009e KB_AnalyzeKeyValue
000035ac  w      .text	00000000 EXTI15_10_IRQHandler
00003d16 g     F .text	00000012 TIM_ITConfig
00000c44 g     F .text	00000080 HUB_Port_PreEnum1
00000fa2 g     F .text	000000a6 USBH_EnumHidDevice
000035ac  w      .text	00000000 DMA1_Channel8_IRQHandler
00001d4e g     F .text	000000a4 i2c_transmit
00001e24 g     F .text	00000044 SSD1306_UpdateScreen
00003a44 g     F .text	00000018 I2C_Cmd
00005498 g     F .text	00000030 _close_r
20000000 g       .dalign	00000000 _data_vma
2000026c g     O .bss	00000004 sendCount
20000280 g     O .bss	00000001 MCU_Version
000015b8 g     F .text	0000002e USBFSH_SetSelfSpeed
00004266 g     F .text	000000fc __swsetup_r
00001048 g     F .text	0000046a USBH_MainDeal
000035ac  w      .text	00000000 EXTI9_5_IRQHandler
200000e0 g     O .data	0000005c morse_code_map
0000461a g     F .text	000000a0 __sfp
00000108 g     F .text	00000028 .hidden __riscv_save_10
000053b8 g     F .text	0000002c __sread
00003aae g     F .text	00000012 I2C_Send7bitAddress
000063f4 g     O .text	0000076c Font7x10
000055a4 g     F .text	00000002 __malloc_lock
0000014a g     F .text	00000016 .hidden __riscv_restore_4
00000140 g     F .text	00000020 .hidden __riscv_restore_8
00004492 g     F .text	00000066 _fflush_r
00000116 g     F .text	0000001a .hidden __riscv_save_6
000035ac  w      .text	00000000 SPI2_IRQHandler
00006cb0 g     O .text	00000020 __sf_fake_stdin
00000160 g     F .text	000000a8 memset
0000241c g     F .text	000000f0 WriteMsg
00000140 g     F .text	00000020 .hidden __riscv_restore_9
0000014a g     F .text	00000016 .hidden __riscv_restore_7
000029cc g     F .text	000001c8 main
00000208 g     F .text	00000070 TIM3_Init
20000274 g     O .bss	00000001 key2old
0000545c g     F .text	00000006 __sclose
00001636 g     F .text	0000003c USBFSH_EnableRootHubPort
20000bdc g     O .bss	00000400 Last_Com_Buf
000048b6 g     F .text	000000da _malloc_r
2000027c g     O .bss	00000004 sendBufLen
000035ac  w      .text	00000000 DMA1_Channel5_IRQHandler
00003b62 g     F .text	0000001a RCC_USBCLKConfig
000035ac  w      .text	00000000 EXTI4_IRQHandler
00003e60 g     F .text	00000036 Delay_Ms
000035ac  w      .text	00000000 USB_LP_CAN1_RX0_IRQHandler
0000250c g     F .text	00000060 DispWelcome
0000238c g     F .text	00000090 ReadSavedMsg
000019a2 g     F .text	00000056 USBFSH_GetStrDescr
00003434 g     F .text	000000ea SystemInit
00004022 g     F .text	00000040 iprintf
000035ac  w      .text	00000000 USB_HP_CAN1_TX_IRQHandler
00004142 g     F .text	00000046 sprintf
00002cec g     F .text	00000058 sub_wpm
00000000 g       .init	00000000 _sinit
2000103c g     O .bss	00000040 USBFS_TX_Buf
000006c4 g     F .text	000001ec KM_AnalyzeConfigDesc
00005462 g     F .text	00000036 _write_r
00001e84 g     F .text	0000004a SSD1306_DrawPixel
000035ac  w      .text	00000000 DMA1_Channel3_IRQHandler
20000268 g     O .bss	00000001 saving
00004fd6 g     F .text	0000010c _printf_common
200001e0 g     O .data	00000004 _impure_ptr
000035ac  w      .text	00000000 TIM1_UP_IRQHandler
00004362 g     F .text	00000130 __sflush_r
000018fc g     F .text	0000003e USBFSH_GetDeviceDescr
00004a74 g     F .text	0000026a _svfiprintf_r
00001a6c g     F .text	00000044 USBFSH_GetEndpData
000035ac  w      .text	00000000 WWDG_IRQHandler
00002d44 g     F .text	00000038 starSending
00001b94 g     F .text	00000026 HUB_ClearPortFeature
000035ac  w      .text	00000000 Ecall_U_Mode_Handler
200001cc g     O .data	00000008 Font_7x10
20000000 g     O .data	00000070 codmap
0000332e g     F .text	00000106 TIM2_IRQHandler
20005000 g       .stack	00000000 _eusrstack
00000130 g     F .text	0000000c .hidden __riscv_save_2
00001594 g     F .text	00000010 USBFSH_CheckRootHubPortSpeed
000035ac  w      .text	00000000 SW_Handler
00001be0 g     F .text	00000038 HUB_GetClassDevDescr
00001c18 g     F .text	00000078 I2C_init
00000ac6 g     F .text	000000aa HUB_AnalyzeConfigDesc
000035ac  w      .text	00000000 TIM1_BRK_IRQHandler
00004724 g     F .text	00000058 __swhatbuf_r
00003df2 g     F .text	00000008 USART_SendData
00001566 g     F .text	0000002e USBFSH_CheckRootHubPortStatus
00001ed8 g     F .text	00000090 SSD1306_Putc
000035ac  w      .text	00000000 EXTI1_IRQHandler
00000116 g     F .text	0000001a .hidden __riscv_save_5
00003ef0 g     F .text	0000003e _write
20000250 g       .data	00000000 _edata
200018a8 g       .bss	00000000 _end
00002d7c g     F .text	00000046 endSending
20000273 g     O .bss	00000001 key2
00003c94 g     F .text	0000006a TIM_TimeBaseInit
000035ac  w      .text	00000000 RTCAlarm_IRQHandler
00000cc4 g     F .text	000000a6 HUB_Port_PreEnum2
00006d2c g       .dlalign	00000000 _data_lma
0000151a g     F .text	0000004c USBFS_Host_Init
00001b3c g     F .text	0000002c HID_SetIdle
000035ac  w      .text	00000000 USART2_IRQHandler
000053e4 g     F .text	00000048 __swrite
000015e6 g     F .text	00000050 USBFSH_ResetRootHubPort
00004d48 g     F .text	0000028e _vfiprintf_r
000046ba g     F .text	0000006a _fwalk_reent
0000351e g     F .text	0000008e SystemCoreClockUpdate
200001c4 g     O .data	00000008 Font_11x18
00002222 g     F .text	00000060 InitGPIOs
000035ac  w      .text	00000000 I2C2_ER_IRQHandler
00000f0a g     F .text	00000098 KB_SetReport
0000373e g     F .text	000000ce FLASH_ROM_WRITE
000035ac  w      .text	00000000 DMA1_Channel2_IRQHandler
00006cd0 g     O .text	00000020 __sf_fake_stdout
00004142 g     F .text	00000046 siprintf
0000013c g     F .text	00000024 .hidden __riscv_restore_12
00005688 g     F .text	00000010 _read
000035ae  w      .text	00000000 handle_reset
000035ac  w      .text	00000000 CAN1_SCE_IRQHandler
000035ac  w      .text	00000000 FLASH_IRQHandler
00000130 g     F .text	0000000c .hidden __riscv_save_0
000035ac  w      .text	00000000 USBFSWakeUp_IRQHandler
00000b70 g     F .text	000000d4 USBH_EnumHubDevice
00002bd8 g     F .text	0000005a TIM2_Init
000035ac  w      .text	00000000 USART1_IRQHandler
0000477c g     F .text	00000092 __smakebuf_r
00003a90 g     F .text	0000001a I2C_AcknowledgeConfig
00004198 g     F .text	00000012 strlen
000050e2 g     F .text	000002a4 _printf_i
20000290 g     O .bss	00000004 __malloc_sbrk_start
000015a4 g     F .text	00000014 USBFSH_SetSelfAddr
00003ac0 g     F .text	00000016 I2C_CheckEvent
00003a76 g     F .text	0000001a I2C_GenerateSTOP
000035ac  w      .text	00000000 I2C1_ER_IRQHandler
00003b08 g     F .text	00000006 NVIC_PriorityGroupConfig
00001672 g     F .text	000000f4 USBFSH_Transact
00002dc2 g     F .text	0000056c bufCovn
2000028c g     O .bss	00000004 __malloc_free_list
00000154 g     F .text	0000000c .hidden __riscv_restore_1
00004d48 g     F .text	0000028e _vfprintf_r
00002282 g     F .text	000000b6 WriteConfig
20000272 g     O .bss	00000001 key1old
000038fe g     F .text	0000001a GPIO_ReadInputDataBit
00003672 g     F .text	00000018 FLASH_GetBank1Status
20000258 g     O .bss	00000004 config
000035ac  w      .text	00000000 USBWakeUp_IRQHandler
00005648 g     F .text	00000010 _close
20000256 g     O .bss	00000001 bufCovnMark
00001766 g     F .text	00000196 USBFSH_CtrlTransfer



Disassembly of section .init:

00000000 <_sinit>:
   0:	5ae0306f          	j	35ae <handle_reset>

Disassembly of section .vector:

00000004 <_vector_base>:
	...
   c:	221e                	lhu	a5,0(a2)
   e:	0000                	unimp
  10:	2220                	lbu	s0,2(a2)
  12:	0000                	unimp
  14:	0000                	unimp
  16:	0000                	unimp
  18:	35ac                	lbu	a1,11(a1)
	...
  22:	0000                	unimp
  24:	35ac                	lbu	a1,11(a1)
  26:	0000                	unimp
  28:	35ac                	lbu	a1,11(a1)
	...
  32:	0000                	unimp
  34:	35ac                	lbu	a1,11(a1)
  36:	0000                	unimp
  38:	0000                	unimp
  3a:	0000                	unimp
  3c:	35ac                	lbu	a1,11(a1)
  3e:	0000                	unimp
  40:	0000                	unimp
  42:	0000                	unimp
  44:	35ac                	lbu	a1,11(a1)
  46:	0000                	unimp
  48:	35ac                	lbu	a1,11(a1)
  4a:	0000                	unimp
  4c:	35ac                	lbu	a1,11(a1)
  4e:	0000                	unimp
  50:	35ac                	lbu	a1,11(a1)
  52:	0000                	unimp
  54:	35ac                	lbu	a1,11(a1)
  56:	0000                	unimp
  58:	35ac                	lbu	a1,11(a1)
  5a:	0000                	unimp
  5c:	35ac                	lbu	a1,11(a1)
  5e:	0000                	unimp
  60:	35ac                	lbu	a1,11(a1)
  62:	0000                	unimp
  64:	35ac                	lbu	a1,11(a1)
  66:	0000                	unimp
  68:	35ac                	lbu	a1,11(a1)
  6a:	0000                	unimp
  6c:	35ac                	lbu	a1,11(a1)
  6e:	0000                	unimp
  70:	35ac                	lbu	a1,11(a1)
  72:	0000                	unimp
  74:	35ac                	lbu	a1,11(a1)
  76:	0000                	unimp
  78:	35ac                	lbu	a1,11(a1)
  7a:	0000                	unimp
  7c:	35ac                	lbu	a1,11(a1)
  7e:	0000                	unimp
  80:	35ac                	lbu	a1,11(a1)
  82:	0000                	unimp
  84:	35ac                	lbu	a1,11(a1)
  86:	0000                	unimp
  88:	35ac                	lbu	a1,11(a1)
  8a:	0000                	unimp
  8c:	35ac                	lbu	a1,11(a1)
  8e:	0000                	unimp
  90:	35ac                	lbu	a1,11(a1)
  92:	0000                	unimp
  94:	35ac                	lbu	a1,11(a1)
  96:	0000                	unimp
  98:	35ac                	lbu	a1,11(a1)
  9a:	0000                	unimp
  9c:	35ac                	lbu	a1,11(a1)
  9e:	0000                	unimp
  a0:	35ac                	lbu	a1,11(a1)
  a2:	0000                	unimp
  a4:	35ac                	lbu	a1,11(a1)
  a6:	0000                	unimp
  a8:	35ac                	lbu	a1,11(a1)
  aa:	0000                	unimp
  ac:	35ac                	lbu	a1,11(a1)
  ae:	0000                	unimp
  b0:	35ac                	lbu	a1,11(a1)
  b2:	0000                	unimp
  b4:	332e                	lhu	a1,34(a4)
  b6:	0000                	unimp
  b8:	0466                	slli	s0,s0,0x19
  ba:	0000                	unimp
  bc:	2b94                	lbu	a3,16(a5)
  be:	0000                	unimp
  c0:	35ac                	lbu	a1,11(a1)
  c2:	0000                	unimp
  c4:	35ac                	lbu	a1,11(a1)
  c6:	0000                	unimp
  c8:	35ac                	lbu	a1,11(a1)
  ca:	0000                	unimp
  cc:	35ac                	lbu	a1,11(a1)
  ce:	0000                	unimp
  d0:	35ac                	lbu	a1,11(a1)
  d2:	0000                	unimp
  d4:	35ac                	lbu	a1,11(a1)
  d6:	0000                	unimp
  d8:	35ac                	lbu	a1,11(a1)
  da:	0000                	unimp
  dc:	35ac                	lbu	a1,11(a1)
  de:	0000                	unimp
  e0:	35ac                	lbu	a1,11(a1)
  e2:	0000                	unimp
  e4:	35ac                	lbu	a1,11(a1)
  e6:	0000                	unimp
  e8:	35ac                	lbu	a1,11(a1)
  ea:	0000                	unimp
  ec:	35ac                	lbu	a1,11(a1)
  ee:	0000                	unimp
  f0:	35ac                	lbu	a1,11(a1)
  f2:	0000                	unimp
  f4:	35ac                	lbu	a1,11(a1)
  f6:	0000                	unimp
  f8:	35ac                	lbu	a1,11(a1)
  fa:	0000                	unimp
  fc:	35ac                	lbu	a1,11(a1)
	...

Disassembly of section .text:

00000100 <__riscv_save_12>:
     100:	7139                	addi	sp,sp,-64
     102:	4301                	li	t1,0
     104:	c66e                	sw	s11,12(sp)
     106:	a019                	j	10c <__riscv_save_10+0x4>

00000108 <__riscv_save_10>:
     108:	7139                	addi	sp,sp,-64
     10a:	5341                	li	t1,-16
     10c:	c86a                	sw	s10,16(sp)
     10e:	ca66                	sw	s9,20(sp)
     110:	cc62                	sw	s8,24(sp)
     112:	ce5e                	sw	s7,28(sp)
     114:	a019                	j	11a <__riscv_save_4+0x4>

00000116 <__riscv_save_4>:
     116:	7139                	addi	sp,sp,-64
     118:	5301                	li	t1,-32
     11a:	d05a                	sw	s6,32(sp)
     11c:	d256                	sw	s5,36(sp)
     11e:	d452                	sw	s4,40(sp)
     120:	d64e                	sw	s3,44(sp)
     122:	d84a                	sw	s2,48(sp)
     124:	da26                	sw	s1,52(sp)
     126:	dc22                	sw	s0,56(sp)
     128:	de06                	sw	ra,60(sp)
     12a:	40610133          	sub	sp,sp,t1
     12e:	8282                	jr	t0

00000130 <__riscv_save_0>:
     130:	1141                	addi	sp,sp,-16
     132:	c04a                	sw	s2,0(sp)
     134:	c226                	sw	s1,4(sp)
     136:	c422                	sw	s0,8(sp)
     138:	c606                	sw	ra,12(sp)
     13a:	8282                	jr	t0

0000013c <__riscv_restore_12>:
     13c:	4db2                	lw	s11,12(sp)
     13e:	0141                	addi	sp,sp,16

00000140 <__riscv_restore_10>:
     140:	4d02                	lw	s10,0(sp)
     142:	4c92                	lw	s9,4(sp)
     144:	4c22                	lw	s8,8(sp)
     146:	4bb2                	lw	s7,12(sp)
     148:	0141                	addi	sp,sp,16

0000014a <__riscv_restore_4>:
     14a:	4b02                	lw	s6,0(sp)
     14c:	4a92                	lw	s5,4(sp)
     14e:	4a22                	lw	s4,8(sp)
     150:	49b2                	lw	s3,12(sp)
     152:	0141                	addi	sp,sp,16

00000154 <__riscv_restore_0>:
     154:	4902                	lw	s2,0(sp)
     156:	4492                	lw	s1,4(sp)
     158:	4422                	lw	s0,8(sp)
     15a:	40b2                	lw	ra,12(sp)
     15c:	0141                	addi	sp,sp,16
     15e:	8082                	ret

00000160 <memset>:
     160:	433d                	li	t1,15
     162:	872a                	mv	a4,a0
     164:	02c37363          	bgeu	t1,a2,18a <memset+0x2a>
     168:	00f77793          	andi	a5,a4,15
     16c:	efbd                	bnez	a5,1ea <memset+0x8a>
     16e:	e5ad                	bnez	a1,1d8 <memset+0x78>
     170:	ff067693          	andi	a3,a2,-16
     174:	8a3d                	andi	a2,a2,15
     176:	96ba                	add	a3,a3,a4
     178:	c30c                	sw	a1,0(a4)
     17a:	c34c                	sw	a1,4(a4)
     17c:	c70c                	sw	a1,8(a4)
     17e:	c74c                	sw	a1,12(a4)
     180:	0741                	addi	a4,a4,16
     182:	fed76be3          	bltu	a4,a3,178 <memset+0x18>
     186:	e211                	bnez	a2,18a <memset+0x2a>
     188:	8082                	ret
     18a:	40c306b3          	sub	a3,t1,a2
     18e:	068a                	slli	a3,a3,0x2
     190:	00000297          	auipc	t0,0x0
     194:	9696                	add	a3,a3,t0
     196:	00a68067          	jr	10(a3)
     19a:	00b70723          	sb	a1,14(a4)
     19e:	00b706a3          	sb	a1,13(a4)
     1a2:	00b70623          	sb	a1,12(a4)
     1a6:	00b705a3          	sb	a1,11(a4)
     1aa:	00b70523          	sb	a1,10(a4)
     1ae:	00b704a3          	sb	a1,9(a4)
     1b2:	00b70423          	sb	a1,8(a4)
     1b6:	00b703a3          	sb	a1,7(a4)
     1ba:	00b70323          	sb	a1,6(a4)
     1be:	00b702a3          	sb	a1,5(a4)
     1c2:	00b70223          	sb	a1,4(a4)
     1c6:	00b701a3          	sb	a1,3(a4)
     1ca:	00b70123          	sb	a1,2(a4)
     1ce:	00b700a3          	sb	a1,1(a4)
     1d2:	00b70023          	sb	a1,0(a4)
     1d6:	8082                	ret
     1d8:	0ff5f593          	andi	a1,a1,255
     1dc:	00859693          	slli	a3,a1,0x8
     1e0:	8dd5                	or	a1,a1,a3
     1e2:	01059693          	slli	a3,a1,0x10
     1e6:	8dd5                	or	a1,a1,a3
     1e8:	b761                	j	170 <memset+0x10>
     1ea:	00279693          	slli	a3,a5,0x2
     1ee:	00000297          	auipc	t0,0x0
     1f2:	9696                	add	a3,a3,t0
     1f4:	8286                	mv	t0,ra
     1f6:	fa8680e7          	jalr	-88(a3)
     1fa:	8096                	mv	ra,t0
     1fc:	17c1                	addi	a5,a5,-16
     1fe:	8f1d                	sub	a4,a4,a5
     200:	963e                	add	a2,a2,a5
     202:	f8c374e3          	bgeu	t1,a2,18a <memset+0x2a>
     206:	b7a5                	j	16e <memset+0xe>

00000208 <TIM3_Init>:
     208:	f29ff2ef          	jal	t0,130 <__riscv_save_0>
     20c:	1101                	addi	sp,sp,-32
     20e:	84aa                	mv	s1,a0
     210:	842e                	mv	s0,a1
     212:	4509                	li	a0,2
     214:	4585                	li	a1,1
     216:	ca02                	sw	zero,20(sp)
     218:	cc02                	sw	zero,24(sp)
     21a:	00011e23          	sh	zero,28(sp)
     21e:	c602                	sw	zero,12(sp)
     220:	c802                	sw	zero,16(sp)
     222:	255030ef          	jal	ra,3c76 <RCC_APB1PeriphClockCmd>
     226:	82e0                	sh	s0,20(sp)
     228:	40000437          	lui	s0,0x40000
     22c:	084c                	addi	a1,sp,20
     22e:	40040513          	addi	a0,s0,1024 # 40000400 <_eusrstack+0x1fffb400>
     232:	84e4                	sh	s1,24(sp)
     234:	00011d23          	sh	zero,26(sp)
     238:	00011b23          	sh	zero,22(sp)
     23c:	259030ef          	jal	ra,3c94 <TIM_TimeBaseInit>
     240:	4605                	li	a2,1
     242:	4585                	li	a1,1
     244:	40040513          	addi	a0,s0,1024
     248:	2cf030ef          	jal	ra,3d16 <TIM_ITConfig>
     24c:	12d00793          	li	a5,301
     250:	867c                	sh	a5,12(sp)
     252:	4785                	li	a5,1
     254:	875c                	sb	a5,14(sp)
     256:	0068                	addi	a0,sp,12
     258:	4785                	li	a5,1
     25a:	c83e                	sw	a5,16(sp)
     25c:	0b3030ef          	jal	ra,3b0e <NVIC_Init>
     260:	4585                	li	a1,1
     262:	40040513          	addi	a0,s0,1024
     266:	299030ef          	jal	ra,3cfe <TIM_Cmd>
     26a:	e000e7b7          	lui	a5,0xe000e
     26e:	6709                	lui	a4,0x2
     270:	10e7a223          	sw	a4,260(a5) # e000e104 <_eusrstack+0xc0009104>
     274:	6105                	addi	sp,sp,32
     276:	bdf9                	j	154 <__riscv_restore_0>

00000278 <CombufDeal>:
     278:	e91ff2ef          	jal	t0,108 <__riscv_save_10>
     27c:	8d418793          	addi	a5,gp,-1836 # 20000294 <Com_Buf>
     280:	23b8                	lbu	a4,2(a5)
     282:	33fc                	lbu	a5,7(a5)
     284:	1141                	addi	sp,sp,-16
     286:	00f71c63          	bne	a4,a5,29e <CombufDeal+0x26>
     28a:	40000613          	li	a2,1024
     28e:	8d418593          	addi	a1,gp,-1836 # 20000294 <Com_Buf>
     292:	21c18513          	addi	a0,gp,540 # 20000bdc <Last_Com_Buf>
     296:	4db030ef          	jal	ra,3f70 <memcpy>
     29a:	0141                	addi	sp,sp,16
     29c:	b555                	j	140 <__riscv_restore_10>
     29e:	8d418313          	addi	t1,gp,-1836 # 20000294 <Com_Buf>
     2a2:	00034603          	lbu	a2,0(t1)
     2a6:	20000537          	lui	a0,0x20000
     2aa:	20000837          	lui	a6,0x20000
     2ae:	02267613          	andi	a2,a2,34
     2b2:	4401                	li	s0,0
     2b4:	4709                	li	a4,2
     2b6:	21c18593          	addi	a1,gp,540 # 20000bdc <Last_Com_Buf>
     2ba:	48a1                	li	a7,8
     2bc:	00050513          	mv	a0,a0
     2c0:	07080813          	addi	a6,a6,112 # 20000070 <codmapWithShift>
     2c4:	00e307b3          	add	a5,t1,a4
     2c8:	239c                	lbu	a5,0(a5)
     2ca:	cb8d                	beqz	a5,2fc <CombufDeal+0x84>
     2cc:	4689                	li	a3,2
     2ce:	4e05                	li	t3,1
     2d0:	00d58eb3          	add	t4,a1,a3
     2d4:	000ece83          	lbu	t4,0(t4)
     2d8:	00fe9363          	bne	t4,a5,2de <CombufDeal+0x66>
     2dc:	4e01                	li	t3,0
     2de:	0685                	addi	a3,a3,1
     2e0:	ff1698e3          	bne	a3,a7,2d0 <CombufDeal+0x58>
     2e4:	000e0c63          	beqz	t3,2fc <CombufDeal+0x84>
     2e8:	0804                	addi	s1,sp,16
     2ea:	00140693          	addi	a3,s0,1
     2ee:	9426                	add	s0,s0,s1
     2f0:	c251                	beqz	a2,374 <CombufDeal+0xfc>
     2f2:	97c2                	add	a5,a5,a6
     2f4:	239c                	lbu	a5,0(a5)
     2f6:	fef40c23          	sb	a5,-8(s0)
     2fa:	8436                	mv	s0,a3
     2fc:	0705                	addi	a4,a4,1
     2fe:	fd1713e3          	bne	a4,a7,2c4 <CombufDeal+0x4c>
     302:	d441                	beqz	s0,28a <CombufDeal+0x12>
     304:	20001937          	lui	s2,0x20001
     308:	20001b37          	lui	s6,0x20001
     30c:	4a01                	li	s4,0
     30e:	47c90913          	addi	s2,s2,1148 # 2000147c <inputBuff>
     312:	89818a93          	addi	s5,gp,-1896 # 20000258 <config>
     316:	688b0b13          	addi	s6,s6,1672 # 20001688 <outputBuff>
     31a:	081c                	addi	a5,sp,16
     31c:	97d2                	add	a5,a5,s4
     31e:	ff87c783          	lbu	a5,-8(a5)
     322:	46e5                	li	a3,25
     324:	fdf7f713          	andi	a4,a5,-33
     328:	fbf70713          	addi	a4,a4,-65 # 1fbf <SSD1306_DrawLine+0x2d>
     32c:	0ff77713          	andi	a4,a4,255
     330:	04e6fc63          	bgeu	a3,a4,388 <CombufDeal+0x110>
     334:	fe078713          	addi	a4,a5,-32
     338:	0ff77693          	andi	a3,a4,255
     33c:	477d                	li	a4,31
     33e:	02d77d63          	bgeu	a4,a3,378 <CombufDeal+0x100>
     342:	06e79a63          	bne	a5,a4,3b6 <CombufDeal+0x13e>
     346:	001ac783          	lbu	a5,1(s5)
     34a:	c3b5                	beqz	a5,3ae <CombufDeal+0x136>
     34c:	89c1ac03          	lw	s8,-1892(gp) # 2000025c <inputBuffSize>
     350:	85ca                	mv	a1,s2
     352:	855a                	mv	a0,s6
     354:	8662                	mv	a2,s8
     356:	41b030ef          	jal	ra,3f70 <memcpy>
     35a:	8b81a223          	sw	s8,-1884(gp) # 20000264 <outputBuffSize>
     35e:	20000613          	li	a2,512
     362:	9c5a                	add	s8,s8,s6
     364:	4581                	li	a1,0
     366:	854a                	mv	a0,s2
     368:	000c0023          	sb	zero,0(s8)
     36c:	8801ae23          	sw	zero,-1892(gp) # 2000025c <inputBuffSize>
     370:	3bc5                	jal	160 <memset>
     372:	a825                	j	3aa <CombufDeal+0x132>
     374:	97aa                	add	a5,a5,a0
     376:	bfbd                	j	2f4 <CombufDeal+0x7c>
     378:	b0000737          	lui	a4,0xb0000
     37c:	80370713          	addi	a4,a4,-2045 # affff803 <_eusrstack+0x8fffa803>
     380:	00d75733          	srl	a4,a4,a3
     384:	8b05                	andi	a4,a4,1
     386:	c745                	beqz	a4,42e <CombufDeal+0x1b6>
     388:	89c1a683          	lw	a3,-1892(gp) # 2000025c <inputBuffSize>
     38c:	00168713          	addi	a4,a3,1
     390:	96ca                	add	a3,a3,s2
     392:	a29c                	sb	a5,0(a3)
     394:	88e1ae23          	sw	a4,-1892(gp) # 2000025c <inputBuffSize>
     398:	974a                	add	a4,a4,s2
     39a:	00070023          	sb	zero,0(a4)
     39e:	001ac783          	lbu	a5,1(s5)
     3a2:	8b01c703          	lbu	a4,-1872(gp) # 20000270 <stge>
     3a6:	8fd9                	or	a5,a5,a4
     3a8:	e399                	bnez	a5,3ae <CombufDeal+0x136>
     3aa:	19b020ef          	jal	ra,2d44 <starSending>
     3ae:	0a05                	addi	s4,s4,1
     3b0:	f74415e3          	bne	s0,s4,31a <CombufDeal+0xa2>
     3b4:	bdd9                	j	28a <CombufDeal+0x12>
     3b6:	476d                	li	a4,27
     3b8:	00e79e63          	bne	a5,a4,3d4 <CombufDeal+0x15c>
     3bc:	1c1020ef          	jal	ra,2d7c <endSending>
     3c0:	20000613          	li	a2,512
     3c4:	4581                	li	a1,0
     3c6:	854a                	mv	a0,s2
     3c8:	8801ae23          	sw	zero,-1892(gp) # 2000025c <inputBuffSize>
     3cc:	3b51                	jal	160 <memset>
     3ce:	8a01a623          	sw	zero,-1876(gp) # 2000026c <sendCount>
     3d2:	bff1                	j	3ae <CombufDeal+0x136>
     3d4:	07f00713          	li	a4,127
     3d8:	02e79563          	bne	a5,a4,402 <CombufDeal+0x18a>
     3dc:	89c1a783          	lw	a5,-1892(gp) # 2000025c <inputBuffSize>
     3e0:	c781                	beqz	a5,3e8 <CombufDeal+0x170>
     3e2:	17fd                	addi	a5,a5,-1
     3e4:	88f1ae23          	sw	a5,-1892(gp) # 2000025c <inputBuffSize>
     3e8:	89c1a783          	lw	a5,-1892(gp) # 2000025c <inputBuffSize>
     3ec:	01278733          	add	a4,a5,s2
     3f0:	00070023          	sb	zero,0(a4)
     3f4:	8ac1a683          	lw	a3,-1876(gp) # 2000026c <sendCount>
     3f8:	fad7fbe3          	bgeu	a5,a3,3ae <CombufDeal+0x136>
     3fc:	8af1a623          	sw	a5,-1876(gp) # 2000026c <sendCount>
     400:	b77d                	j	3ae <CombufDeal+0x136>
     402:	4705                	li	a4,1
     404:	4505                	li	a0,1
     406:	00e78a63          	beq	a5,a4,41a <CombufDeal+0x1a2>
     40a:	4709                	li	a4,2
     40c:	4505                	li	a0,1
     40e:	00e78d63          	beq	a5,a4,428 <CombufDeal+0x1b0>
     412:	4771                	li	a4,28
     414:	00e79663          	bne	a5,a4,420 <CombufDeal+0x1a8>
     418:	4515                	li	a0,5
     41a:	0d3020ef          	jal	ra,2cec <sub_wpm>
     41e:	bf41                	j	3ae <CombufDeal+0x136>
     420:	4775                	li	a4,29
     422:	00e79663          	bne	a5,a4,42e <CombufDeal+0x1b6>
     426:	4515                	li	a0,5
     428:	06d020ef          	jal	ra,2c94 <add_wpm>
     42c:	b749                	j	3ae <CombufDeal+0x136>
     42e:	ffd78513          	addi	a0,a5,-3
     432:	0ff57513          	andi	a0,a0,255
     436:	472d                	li	a4,11
     438:	00a76563          	bltu	a4,a0,442 <CombufDeal+0x1ca>
     43c:	751010ef          	jal	ra,238c <ReadSavedMsg>
     440:	b7bd                	j	3ae <CombufDeal+0x136>
     442:	ff178513          	addi	a0,a5,-15
     446:	0ff57513          	andi	a0,a0,255
     44a:	f6a762e3          	bltu	a4,a0,3ae <CombufDeal+0x136>
     44e:	7cf010ef          	jal	ra,241c <WriteMsg>
     452:	20000613          	li	a2,512
     456:	4581                	li	a1,0
     458:	854a                	mv	a0,s2
     45a:	8801ae23          	sw	zero,-1892(gp) # 2000025c <inputBuffSize>
     45e:	8a01a623          	sw	zero,-1876(gp) # 2000026c <sendCount>
     462:	39fd                	jal	160 <memset>
     464:	b7a9                	j	3ae <CombufDeal+0x136>

00000466 <TIM3_IRQHandler>:
     466:	1141                	addi	sp,sp,-16
     468:	c622                	sw	s0,12(sp)
     46a:	40000437          	lui	s0,0x40000
     46e:	4585                	li	a1,1
     470:	40040513          	addi	a0,s0,1024 # 40000400 <_eusrstack+0x1fffb400>
     474:	0b5030ef          	jal	ra,3d28 <TIM_GetITStatus>
     478:	10050763          	beqz	a0,586 <TIM3_IRQHandler+0x120>
     47c:	4585                	li	a1,1
     47e:	40040513          	addi	a0,s0,1024
     482:	0bf030ef          	jal	ra,3d40 <TIM_ClearITPendingBit>
     486:	61c18693          	addi	a3,gp,1564 # 20000fdc <RootHubDev>
     48a:	2290                	lbu	a2,0(a3)
     48c:	4789                	li	a5,2
     48e:	00c7ee63          	bltu	a5,a2,4aa <TIM3_IRQHandler+0x44>
     492:	200007b7          	lui	a5,0x20000
     496:	1c078793          	addi	a5,a5,448 # 200001c0 <start_count_down.5219>
     49a:	4398                	lw	a4,0(a5)
     49c:	0ee04363          	bgtz	a4,582 <TIM3_IRQHandler+0x11c>
     4a0:	e37d                	bnez	a4,586 <TIM3_IRQHandler+0x120>
     4a2:	8801ae23          	sw	zero,-1892(gp) # 2000025c <inputBuffSize>
     4a6:	577d                	li	a4,-1
     4a8:	a8f1                	j	584 <TIM3_IRQHandler+0x11e>
     4aa:	3290                	lbu	a2,1(a3)
     4ac:	458d                	li	a1,3
     4ae:	32dc                	lbu	a5,5(a3)
     4b0:	04b61363          	bne	a2,a1,4f6 <TIM3_IRQHandler+0x90>
     4b4:	10a00713          	li	a4,266
     4b8:	02e78733          	mul	a4,a5,a4
     4bc:	ce818793          	addi	a5,gp,-792 # 200006a8 <HostCtl>
     4c0:	4681                	li	a3,0
     4c2:	97ba                	add	a5,a5,a4
     4c4:	0007c803          	lbu	a6,0(a5)
     4c8:	fcd805e3          	beq	a6,a3,492 <TIM3_IRQHandler+0x2c>
     4cc:	2788                	lbu	a0,8(a5)
     4ce:	863e                	mv	a2,a5
     4d0:	4701                	li	a4,0
     4d2:	a809                	j	4e4 <TIM3_IRQHandler+0x7e>
     4d4:	02164583          	lbu	a1,33(a2)
     4d8:	0705                	addi	a4,a4,1
     4da:	0ff77713          	andi	a4,a4,255
     4de:	0585                	addi	a1,a1,1
     4e0:	02b600a3          	sb	a1,33(a2)
     4e4:	0605                	addi	a2,a2,1
     4e6:	fee517e3          	bne	a0,a4,4d4 <TIM3_IRQHandler+0x6e>
     4ea:	0685                	addi	a3,a3,1
     4ec:	0ff6f693          	andi	a3,a3,255
     4f0:	04278793          	addi	a5,a5,66
     4f4:	bfd1                	j	4c8 <TIM3_IRQHandler+0x62>
     4f6:	45a5                	li	a1,9
     4f8:	f8b61de3          	bne	a2,a1,492 <TIM3_IRQHandler+0x2c>
     4fc:	10a00513          	li	a0,266
     500:	02a787b3          	mul	a5,a5,a0
     504:	ce818593          	addi	a1,gp,-792 # 200006a8 <HostCtl>
     508:	0066c303          	lbu	t1,6(a3)
     50c:	61c18713          	addi	a4,gp,1564 # 20000fdc <RootHubDev>
     510:	4681                	li	a3,0
     512:	ce818513          	addi	a0,gp,-792 # 200006a8 <HostCtl>
     516:	4e09                	li	t3,2
     518:	4e8d                	li	t4,3
     51a:	10a00f13          	li	t5,266
     51e:	97ae                	add	a5,a5,a1
     520:	0227c583          	lbu	a1,34(a5)
     524:	0585                	addi	a1,a1,1
     526:	02b78123          	sb	a1,34(a5)
     52a:	f6d304e3          	beq	t1,a3,492 <TIM3_IRQHandler+0x2c>
     52e:	337c                	lbu	a5,7(a4)
     530:	04fe7463          	bgeu	t3,a5,578 <TIM3_IRQHandler+0x112>
     534:	271c                	lbu	a5,8(a4)
     536:	05d79163          	bne	a5,t4,578 <TIM3_IRQHandler+0x112>
     53a:	275c                	lbu	a5,12(a4)
     53c:	4581                	li	a1,0
     53e:	03e787b3          	mul	a5,a5,t5
     542:	97aa                	add	a5,a5,a0
     544:	0007c283          	lbu	t0,0(a5)
     548:	02b28863          	beq	t0,a1,578 <TIM3_IRQHandler+0x112>
     54c:	0087cf83          	lbu	t6,8(a5)
     550:	883e                	mv	a6,a5
     552:	4601                	li	a2,0
     554:	a809                	j	566 <TIM3_IRQHandler+0x100>
     556:	02184883          	lbu	a7,33(a6)
     55a:	0605                	addi	a2,a2,1
     55c:	0ff67613          	andi	a2,a2,255
     560:	0885                	addi	a7,a7,1
     562:	031800a3          	sb	a7,33(a6)
     566:	0805                	addi	a6,a6,1
     568:	fecf97e3          	bne	t6,a2,556 <TIM3_IRQHandler+0xf0>
     56c:	0585                	addi	a1,a1,1
     56e:	0ff5f593          	andi	a1,a1,255
     572:	04278793          	addi	a5,a5,66
     576:	bfc9                	j	548 <TIM3_IRQHandler+0xe2>
     578:	0685                	addi	a3,a3,1
     57a:	0ff6f693          	andi	a3,a3,255
     57e:	0719                	addi	a4,a4,6
     580:	b76d                	j	52a <TIM3_IRQHandler+0xc4>
     582:	177d                	addi	a4,a4,-1
     584:	c398                	sw	a4,0(a5)
     586:	4432                	lw	s0,12(sp)
     588:	0141                	addi	sp,sp,16
     58a:	30200073          	mret

0000058e <USBH_AnalyseType>:
     58e:	2158                	lbu	a4,4(a0)
     590:	46a1                	li	a3,8
     592:	00d70563          	beq	a4,a3,59c <USBH_AnalyseType+0xe>
     596:	25fc                	lbu	a5,14(a1)
     598:	00d79563          	bne	a5,a3,5a2 <USBH_AnalyseType+0x14>
     59c:	47a1                	li	a5,8
     59e:	a21c                	sb	a5,0(a2)
     5a0:	8082                	ret
     5a2:	469d                	li	a3,7
     5a4:	00d70463          	beq	a4,a3,5ac <USBH_AnalyseType+0x1e>
     5a8:	00d79463          	bne	a5,a3,5b0 <USBH_AnalyseType+0x22>
     5ac:	479d                	li	a5,7
     5ae:	bfc5                	j	59e <USBH_AnalyseType+0x10>
     5b0:	468d                	li	a3,3
     5b2:	00d70463          	beq	a4,a3,5ba <USBH_AnalyseType+0x2c>
     5b6:	00d79463          	bne	a5,a3,5be <USBH_AnalyseType+0x30>
     5ba:	478d                	li	a5,3
     5bc:	b7cd                	j	59e <USBH_AnalyseType+0x10>
     5be:	46a5                	li	a3,9
     5c0:	00d70463          	beq	a4,a3,5c8 <USBH_AnalyseType+0x3a>
     5c4:	00d79463          	bne	a5,a3,5cc <USBH_AnalyseType+0x3e>
     5c8:	47a5                	li	a5,9
     5ca:	bfd1                	j	59e <USBH_AnalyseType+0x10>
     5cc:	57fd                	li	a5,-1
     5ce:	bfc1                	j	59e <USBH_AnalyseType+0x10>

000005d0 <USBH_EnumRootDevice>:
     5d0:	b39ff2ef          	jal	t0,108 <__riscv_save_10>
     5d4:	61c18493          	addi	s1,gp,1564 # 20000fdc <RootHubDev>
     5d8:	1141                	addi	sp,sp,-16
     5da:	4401                	li	s0,0
     5dc:	00348b13          	addi	s6,s1,3
     5e0:	4b99                	li	s7,6
     5e2:	00448c13          	addi	s8,s1,4
     5e6:	8d418993          	addi	s3,gp,-1836 # 20000294 <Com_Buf>
     5ea:	06400513          	li	a0,100
     5ee:	073030ef          	jal	ra,3e60 <Delay_Ms>
     5f2:	0405                	addi	s0,s0,1
     5f4:	0ff47413          	andi	s0,s0,255
     5f8:	4521                	li	a0,8
     5fa:	00851533          	sll	a0,a0,s0
     5fe:	063030ef          	jal	ra,3e60 <Delay_Ms>
     602:	4501                	li	a0,0
     604:	7e3000ef          	jal	ra,15e6 <USBFSH_ResetRootHubPort>
     608:	4901                	li	s2,0
     60a:	4a01                	li	s4,0
     60c:	06400c93          	li	s9,100
     610:	855a                	mv	a0,s6
     612:	024010ef          	jal	ra,1636 <USBFSH_EnableRootHubPort>
     616:	e519                	bnez	a0,624 <USBH_EnumRootDevice+0x54>
     618:	0a05                	addi	s4,s4,1
     61a:	0ffa7a13          	andi	s4,s4,255
     61e:	054be463          	bltu	s7,s4,666 <USBH_EnumRootDevice+0x96>
     622:	4901                	li	s2,0
     624:	0905                	addi	s2,s2,1
     626:	0942                	slli	s2,s2,0x10
     628:	4505                	li	a0,1
     62a:	01095913          	srli	s2,s2,0x10
     62e:	033030ef          	jal	ra,3e60 <Delay_Ms>
     632:	fd991fe3          	bne	s2,s9,610 <USBH_EnumRootDevice+0x40>
     636:	4795                	li	a5,5
     638:	fa87f9e3          	bgeu	a5,s0,5ea <USBH_EnumRootDevice+0x1a>
     63c:	4559                	li	a0,22
     63e:	a031                	j	64a <USBH_EnumRootDevice+0x7a>
     640:	4795                	li	a5,5
     642:	fa87f4e3          	bgeu	a5,s0,5ea <USBH_EnumRootDevice+0x1a>
     646:	04500513          	li	a0,69
     64a:	0141                	addi	sp,sp,16
     64c:	bcd5                	j	140 <__riscv_restore_10>
     64e:	4795                	li	a5,5
     650:	f887fde3          	bgeu	a5,s0,5ea <USBH_EnumRootDevice+0x1a>
     654:	04600513          	li	a0,70
     658:	bfcd                	j	64a <USBH_EnumRootDevice+0x7a>
     65a:	4795                	li	a5,5
     65c:	f887f7e3          	bgeu	a5,s0,5ea <USBH_EnumRootDevice+0x1a>
     660:	04700513          	li	a0,71
     664:	b7dd                	j	64a <USBH_EnumRootDevice+0x7a>
     666:	cd418593          	addi	a1,gp,-812 # 20000694 <DevDesc_Buf>
     66a:	8562                	mv	a0,s8
     66c:	290010ef          	jal	ra,18fc <USBFSH_GetDeviceDescr>
     670:	f961                	bnez	a0,640 <USBH_EnumRootDevice+0x70>
     672:	20c8                	lbu	a0,4(s1)
     674:	4909                	li	s2,2
     676:	4589                	li	a1,2
     678:	01248123          	sb	s2,2(s1)
     67c:	37c010ef          	jal	ra,19f8 <USBFSH_SetUsbAddress>
     680:	f579                	bnez	a0,64e <USBH_EnumRootDevice+0x7e>
     682:	4515                	li	a0,5
     684:	01248123          	sb	s2,2(s1)
     688:	7d8030ef          	jal	ra,3e60 <Delay_Ms>
     68c:	20c8                	lbu	a0,4(s1)
     68e:	00e10693          	addi	a3,sp,14
     692:	40000613          	li	a2,1024
     696:	85ce                	mv	a1,s3
     698:	2a2010ef          	jal	ra,193a <USBFSH_GetConfigDescr>
     69c:	fd5d                	bnez	a0,65a <USBH_EnumRootDevice+0x8a>
     69e:	85ce                	mv	a1,s3
     6a0:	cd418513          	addi	a0,gp,-812 # 20000694 <DevDesc_Buf>
     6a4:	00148613          	addi	a2,s1,1
     6a8:	0059c903          	lbu	s2,5(s3)
     6ac:	35cd                	jal	58e <USBH_AnalyseType>
     6ae:	20c8                	lbu	a0,4(s1)
     6b0:	85ca                	mv	a1,s2
     6b2:	37a010ef          	jal	ra,1a2c <USBFSH_SetUsbConfig>
     6b6:	d951                	beqz	a0,64a <USBH_EnumRootDevice+0x7a>
     6b8:	4795                	li	a5,5
     6ba:	f287f8e3          	bgeu	a5,s0,5ea <USBH_EnumRootDevice+0x1a>
     6be:	0fb00513          	li	a0,251
     6c2:	b761                	j	64a <USBH_EnumRootDevice+0x7a>

000006c4 <KM_AnalyzeConfigDesc>:
     6c4:	a45ff2ef          	jal	t0,108 <__riscv_save_10>
     6c8:	10a00a13          	li	s4,266
     6cc:	03450a33          	mul	s4,a0,s4
     6d0:	ce818993          	addi	s3,gp,-792 # 200006a8 <HostCtl>
     6d4:	8c2a                	mv	s8,a0
     6d6:	8aae                	mv	s5,a1
     6d8:	4481                	li	s1,0
     6da:	4401                	li	s0,0
     6dc:	8d418913          	addi	s2,gp,-1836 # 20000294 <Com_Buf>
     6e0:	4b89                	li	s7,2
     6e2:	01498b33          	add	s6,s3,s4
     6e6:	00394783          	lbu	a5,3(s2)
     6ea:	00294703          	lbu	a4,2(s2)
     6ee:	07a2                	slli	a5,a5,0x8
     6f0:	97ba                	add	a5,a5,a4
     6f2:	1af45c63          	bge	s0,a5,8aa <__stack_size+0xaa>
     6f6:	008907b3          	add	a5,s2,s0
     6fa:	3398                	lbu	a4,1(a5)
     6fc:	03771263          	bne	a4,s7,720 <KM_AnalyzeConfigDesc+0x5c>
     700:	23dc                	lbu	a5,4(a5)
     702:	4711                	li	a4,4
     704:	00f77b63          	bgeu	a4,a5,71a <KM_AnalyzeConfigDesc+0x56>
     708:	00eb0023          	sb	a4,0(s6)
     70c:	008907b3          	add	a5,s2,s0
     710:	239c                	lbu	a5,0(a5)
     712:	943e                	add	s0,s0,a5
     714:	0442                	slli	s0,s0,0x10
     716:	8041                	srli	s0,s0,0x10
     718:	b7f9                	j	6e6 <KM_AnalyzeConfigDesc+0x22>
     71a:	00fb0023          	sb	a5,0(s6)
     71e:	b7fd                	j	70c <KM_AnalyzeConfigDesc+0x48>
     720:	4691                	li	a3,4
     722:	fed717e3          	bne	a4,a3,710 <KM_AnalyzeConfigDesc+0x4c>
     726:	18e48263          	beq	s1,a4,8aa <__stack_size+0xaa>
     72a:	33d4                	lbu	a3,5(a5)
     72c:	470d                	li	a4,3
     72e:	16e69063          	bne	a3,a4,88e <__stack_size+0x8e>
     732:	23f8                	lbu	a4,6(a5)
     734:	4685                	li	a3,1
     736:	12e6ed63          	bltu	a3,a4,870 <__stack_size+0x70>
     73a:	33f8                	lbu	a4,7(a5)
     73c:	12ebea63          	bltu	s7,a4,870 <__stack_size+0x70>
     740:	0ad71d63          	bne	a4,a3,7fa <KM_AnalyzeConfigDesc+0x136>
     744:	04200793          	li	a5,66
     748:	02f487b3          	mul	a5,s1,a5
     74c:	97d2                	add	a5,a5,s4
     74e:	97ce                	add	a5,a5,s3
     750:	a3b8                	sb	a4,2(a5)
     752:	4681                	li	a3,0
     754:	4601                	li	a2,0
     756:	85a6                	mv	a1,s1
     758:	8556                	mv	a0,s5
     75a:	3e2010ef          	jal	ra,1b3c <HID_SetIdle>
     75e:	008907b3          	add	a5,s2,s0
     762:	239c                	lbu	a5,0(a5)
     764:	02100893          	li	a7,33
     768:	08500713          	li	a4,133
     76c:	943e                	add	s0,s0,a5
     76e:	04200793          	li	a5,66
     772:	02f487b3          	mul	a5,s1,a5
     776:	00294303          	lbu	t1,2(s2)
     77a:	0442                	slli	s0,s0,0x10
     77c:	8041                	srli	s0,s0,0x10
     77e:	4681                	li	a3,0
     780:	4501                	li	a0,0
     782:	4e11                	li	t3,4
     784:	4e95                	li	t4,5
     786:	03148833          	mul	a6,s1,a7
     78a:	97d2                	add	a5,a5,s4
     78c:	97ce                	add	a5,a5,s3
     78e:	02ec0733          	mul	a4,s8,a4
     792:	983a                	add	a6,a6,a4
     794:	00890733          	add	a4,s2,s0
     798:	3310                	lbu	a2,1(a4)
     79a:	0bc60863          	beq	a2,t3,84a <__stack_size+0x4a>
     79e:	0a647663          	bgeu	s0,t1,84a <__stack_size+0x4a>
     7a2:	230c                	lbu	a1,0(a4)
     7a4:	942e                	add	s0,s0,a1
     7a6:	0442                	slli	s0,s0,0x10
     7a8:	8041                	srli	s0,s0,0x10
     7aa:	09d61863          	bne	a2,t4,83a <__stack_size+0x3a>
     7ae:	3350                	lbu	a2,5(a4)
     7b0:	232c                	lbu	a1,2(a4)
     7b2:	00474f03          	lbu	t5,4(a4)
     7b6:	0622                	slli	a2,a2,0x8
     7b8:	00f5f293          	andi	t0,a1,15
     7bc:	967a                	add	a2,a2,t5
     7be:	05e2                	slli	a1,a1,0x18
     7c0:	0642                	slli	a2,a2,0x10
     7c2:	85e1                	srai	a1,a1,0x18
     7c4:	00374f83          	lbu	t6,3(a4)
     7c8:	8241                	srli	a2,a2,0x10
     7ca:	0405d363          	bgez	a1,810 <__stack_size+0x10>
     7ce:	2378                	lbu	a4,6(a4)
     7d0:	00a78f33          	add	t5,a5,a0
     7d4:	00a805b3          	add	a1,a6,a0
     7d8:	00ef0f23          	sb	a4,30(t5)
     7dc:	2798                	lbu	a4,8(a5)
     7de:	05a1                	addi	a1,a1,8
     7e0:	0586                	slli	a1,a1,0x1
     7e2:	95ce                	add	a1,a1,s3
     7e4:	0705                	addi	a4,a4,1
     7e6:	0505                	addi	a0,a0,1
     7e8:	005f04a3          	sb	t0,9(t5)
     7ec:	01ff06a3          	sb	t6,13(t5)
     7f0:	a1b2                	sh	a2,2(a1)
     7f2:	a798                	sb	a4,8(a5)
     7f4:	0ff57513          	andi	a0,a0,255
     7f8:	bf71                	j	794 <KM_AnalyzeConfigDesc+0xd0>
     7fa:	f77712e3          	bne	a4,s7,75e <KM_AnalyzeConfigDesc+0x9a>
     7fe:	04200793          	li	a5,66
     802:	02f487b3          	mul	a5,s1,a5
     806:	97d2                	add	a5,a5,s4
     808:	97ce                	add	a5,a5,s3
     80a:	01778123          	sb	s7,2(a5)
     80e:	b791                	j	752 <KM_AnalyzeConfigDesc+0x8e>
     810:	00d78733          	add	a4,a5,a3
     814:	025703a3          	sb	t0,39(a4)
     818:	03f705a3          	sb	t6,43(a4)
     81c:	00d80733          	add	a4,a6,a3
     820:	0741                	addi	a4,a4,16
     822:	0706                	slli	a4,a4,0x1
     824:	974e                	add	a4,a4,s3
     826:	ab12                	sh	a2,16(a4)
     828:	0267c703          	lbu	a4,38(a5)
     82c:	0685                	addi	a3,a3,1
     82e:	0ff6f693          	andi	a3,a3,255
     832:	0705                	addi	a4,a4,1
     834:	02e78323          	sb	a4,38(a5)
     838:	bfb1                	j	794 <KM_AnalyzeConfigDesc+0xd0>
     83a:	f5161de3          	bne	a2,a7,794 <KM_AnalyzeConfigDesc+0xd0>
     83e:	2710                	lbu	a2,8(a4)
     840:	3378                	lbu	a4,7(a4)
     842:	0622                	slli	a2,a2,0x8
     844:	8f51                	or	a4,a4,a2
     846:	a3da                	sh	a4,4(a5)
     848:	b7b1                	j	794 <KM_AnalyzeConfigDesc+0xd0>
     84a:	4785                	li	a5,1
     84c:	00f69e63          	bne	a3,a5,868 <__stack_size+0x68>
     850:	04200793          	li	a5,66
     854:	02f487b3          	mul	a5,s1,a5
     858:	97d2                	add	a5,a5,s4
     85a:	97ce                	add	a5,a5,s3
     85c:	23b8                	lbu	a4,2(a5)
     85e:	00d71563          	bne	a4,a3,868 <__stack_size+0x68>
     862:	577d                	li	a4,-1
     864:	04e78023          	sb	a4,64(a5)
     868:	0485                	addi	s1,s1,1
     86a:	0ff4f493          	andi	s1,s1,255
     86e:	bda5                	j	6e6 <KM_AnalyzeConfigDesc+0x22>
     870:	04200793          	li	a5,66
     874:	02f487b3          	mul	a5,s1,a5
     878:	577d                	li	a4,-1
     87a:	97d2                	add	a5,a5,s4
     87c:	97ce                	add	a5,a5,s3
     87e:	a3b8                	sb	a4,2(a5)
     880:	008907b3          	add	a5,s2,s0
     884:	239c                	lbu	a5,0(a5)
     886:	943e                	add	s0,s0,a5
     888:	0442                	slli	s0,s0,0x10
     88a:	8041                	srli	s0,s0,0x10
     88c:	bff1                	j	868 <__stack_size+0x68>
     88e:	04200793          	li	a5,66
     892:	02f484b3          	mul	s1,s1,a5
     896:	10a00793          	li	a5,266
     89a:	02fc0c33          	mul	s8,s8,a5
     89e:	57fd                	li	a5,-1
     8a0:	9c26                	add	s8,s8,s1
     8a2:	ce818493          	addi	s1,gp,-792 # 200006a8 <HostCtl>
     8a6:	94e2                	add	s1,s1,s8
     8a8:	a0bc                	sb	a5,2(s1)
     8aa:	4501                	li	a0,0
     8ac:	895ff06f          	j	140 <__riscv_restore_10>

000008b0 <KM_AnalyzeHidReportDesc>:
     8b0:	8d41c683          	lbu	a3,-1836(gp) # 20000294 <Com_Buf>
     8b4:	4795                	li	a5,5
     8b6:	18f69563          	bne	a3,a5,a40 <KM_AnalyzeHidReportDesc+0x190>
     8ba:	8d418713          	addi	a4,gp,-1836 # 20000294 <Com_Buf>
     8be:	3314                	lbu	a3,1(a4)
     8c0:	4785                	li	a5,1
     8c2:	16f69f63          	bne	a3,a5,a40 <KM_AnalyzeHidReportDesc+0x190>
     8c6:	2334                	lbu	a3,2(a4)
     8c8:	47a5                	li	a5,9
     8ca:	16f69b63          	bne	a3,a5,a40 <KM_AnalyzeHidReportDesc+0x190>
     8ce:	3334                	lbu	a3,3(a4)
     8d0:	4799                	li	a5,6
     8d2:	16f69763          	bne	a3,a5,a40 <KM_AnalyzeHidReportDesc+0x190>
     8d6:	04200693          	li	a3,66
     8da:	10a00813          	li	a6,266
     8de:	03050833          	mul	a6,a0,a6
     8e2:	ce818613          	addi	a2,gp,-792 # 200006a8 <HostCtl>
     8e6:	1101                	addi	sp,sp,-32
     8e8:	ce22                	sw	s0,28(sp)
     8ea:	cc26                	sw	s1,24(sp)
     8ec:	ca4a                	sw	s2,20(sp)
     8ee:	c84e                	sw	s3,16(sp)
     8f0:	c652                	sw	s4,12(sp)
     8f2:	c456                	sw	s5,8(sp)
     8f4:	02d586b3          	mul	a3,a1,a3
     8f8:	c25a                	sw	s6,4(sp)
     8fa:	c05e                	sw	s7,0(sp)
     8fc:	4791                	li	a5,4
     8fe:	4301                	li	t1,0
     900:	4e81                	li	t4,0
     902:	4f01                	li	t5,0
     904:	4e01                	li	t3,0
     906:	ce818893          	addi	a7,gp,-792 # 200006a8 <HostCtl>
     90a:	4411                	li	s0,4
     90c:	96c2                	add	a3,a3,a6
     90e:	9636                	add	a2,a2,a3
     910:	00465383          	lhu	t2,4(a2)
     914:	4801                	li	a6,0
     916:	07000f93          	li	t6,112
     91a:	08000493          	li	s1,128
     91e:	09000293          	li	t0,144
     922:	4921                	li	s2,8
     924:	49c1                	li	s3,16
     926:	02000a13          	li	s4,32
     92a:	4a85                	li	s5,1
     92c:	0477e063          	bltu	a5,t2,96c <KM_AnalyzeHidReportDesc+0xbc>
     930:	47a1                	li	a5,8
     932:	0ef31a63          	bne	t1,a5,a26 <KM_AnalyzeHidReportDesc+0x176>
     936:	04200793          	li	a5,66
     93a:	10a00713          	li	a4,266
     93e:	02f587b3          	mul	a5,a1,a5
     942:	02e50733          	mul	a4,a0,a4
     946:	97ba                	add	a5,a5,a4
     948:	00f885b3          	add	a1,a7,a5
     94c:	0405c783          	lbu	a5,64(a1)
     950:	e781                	bnez	a5,958 <KM_AnalyzeHidReportDesc+0xa8>
     952:	4785                	li	a5,1
     954:	04f58023          	sb	a5,64(a1)
     958:	4472                	lw	s0,28(sp)
     95a:	44e2                	lw	s1,24(sp)
     95c:	4952                	lw	s2,20(sp)
     95e:	49c2                	lw	s3,16(sp)
     960:	4a32                	lw	s4,12(sp)
     962:	4aa2                	lw	s5,8(sp)
     964:	4b12                	lw	s6,4(sp)
     966:	4b82                	lw	s7,0(sp)
     968:	6105                	addi	sp,sp,32
     96a:	8082                	ret
     96c:	00f706b3          	add	a3,a4,a5
     970:	2294                	lbu	a3,0(a3)
     972:	0785                	addi	a5,a5,1
     974:	07c2                	slli	a5,a5,0x10
     976:	00c6fb93          	andi	s7,a3,12
     97a:	0036fb13          	andi	s6,a3,3
     97e:	83c1                	srli	a5,a5,0x10
     980:	0f06f693          	andi	a3,a3,240
     984:	028b8d63          	beq	s7,s0,9be <KM_AnalyzeHidReportDesc+0x10e>
     988:	072b8b63          	beq	s7,s2,9fe <KM_AnalyzeHidReportDesc+0x14e>
     98c:	020b9563          	bnez	s7,9b6 <KM_AnalyzeHidReportDesc+0x106>
     990:	02569363          	bne	a3,t0,9b6 <KM_AnalyzeHidReportDesc+0x106>
     994:	02080163          	beqz	a6,9b6 <KM_AnalyzeHidReportDesc+0x106>
     998:	03ee86b3          	mul	a3,t4,t5
     99c:	9336                	add	t1,t1,a3
     99e:	0342                	slli	t1,t1,0x10
     9a0:	01035313          	srli	t1,t1,0x10
     9a4:	000e0963          	beqz	t3,9b6 <KM_AnalyzeHidReportDesc+0x106>
     9a8:	03c64683          	lbu	a3,60(a2)
     9ac:	e689                	bnez	a3,9b6 <KM_AnalyzeHidReportDesc+0x106>
     9ae:	03560e23          	sb	s5,60(a2)
     9b2:	03c60ea3          	sb	t3,61(a2)
     9b6:	97da                	add	a5,a5,s6
     9b8:	07c2                	slli	a5,a5,0x10
     9ba:	83c1                	srli	a5,a5,0x10
     9bc:	bf85                	j	92c <KM_AnalyzeHidReportDesc+0x7c>
     9be:	03f68b63          	beq	a3,t6,9f4 <KM_AnalyzeHidReportDesc+0x144>
     9c2:	00dfeb63          	bltu	t6,a3,9d8 <KM_AnalyzeHidReportDesc+0x128>
     9c6:	fae5                	bnez	a3,9b6 <KM_AnalyzeHidReportDesc+0x106>
     9c8:	00f706b3          	add	a3,a4,a5
     9cc:	0006c803          	lbu	a6,0(a3)
     9d0:	1861                	addi	a6,a6,-8
     9d2:	00183813          	seqz	a6,a6
     9d6:	b7c5                	j	9b6 <KM_AnalyzeHidReportDesc+0x106>
     9d8:	00968963          	beq	a3,s1,9ea <KM_AnalyzeHidReportDesc+0x13a>
     9dc:	fc569de3          	bne	a3,t0,9b6 <KM_AnalyzeHidReportDesc+0x106>
     9e0:	00f706b3          	add	a3,a4,a5
     9e4:	0006ce83          	lbu	t4,0(a3)
     9e8:	b7f9                	j	9b6 <KM_AnalyzeHidReportDesc+0x106>
     9ea:	00f706b3          	add	a3,a4,a5
     9ee:	0006ce03          	lbu	t3,0(a3)
     9f2:	b7d1                	j	9b6 <KM_AnalyzeHidReportDesc+0x106>
     9f4:	00f706b3          	add	a3,a4,a5
     9f8:	0006cf03          	lbu	t5,0(a3)
     9fc:	bf6d                	j	9b6 <KM_AnalyzeHidReportDesc+0x106>
     9fe:	01368c63          	beq	a3,s3,a16 <KM_AnalyzeHidReportDesc+0x166>
     a02:	fb469ae3          	bne	a3,s4,9b6 <KM_AnalyzeHidReportDesc+0x106>
     a06:	fa0808e3          	beqz	a6,9b6 <KM_AnalyzeHidReportDesc+0x106>
     a0a:	00f706b3          	add	a3,a4,a5
     a0e:	2294                	lbu	a3,0(a3)
     a10:	02d60fa3          	sb	a3,63(a2)
     a14:	b74d                	j	9b6 <KM_AnalyzeHidReportDesc+0x106>
     a16:	fa0800e3          	beqz	a6,9b6 <KM_AnalyzeHidReportDesc+0x106>
     a1a:	00f706b3          	add	a3,a4,a5
     a1e:	2294                	lbu	a3,0(a3)
     a20:	02d60f23          	sb	a3,62(a2)
     a24:	bf49                	j	9b6 <KM_AnalyzeHidReportDesc+0x106>
     a26:	04200793          	li	a5,66
     a2a:	02f587b3          	mul	a5,a1,a5
     a2e:	10a00593          	li	a1,266
     a32:	02b50533          	mul	a0,a0,a1
     a36:	97aa                	add	a5,a5,a0
     a38:	97c6                	add	a5,a5,a7
     a3a:	04078023          	sb	zero,64(a5)
     a3e:	bf29                	j	958 <KM_AnalyzeHidReportDesc+0xa8>
     a40:	8082                	ret

00000a42 <KM_DealHidReportDesc>:
     a42:	ebeff2ef          	jal	t0,100 <__riscv_save_12>
     a46:	10a00493          	li	s1,266
     a4a:	029504b3          	mul	s1,a0,s1
     a4e:	ce818993          	addi	s3,gp,-792 # 200006a8 <HostCtl>
     a52:	1141                	addi	sp,sp,-16
     a54:	8aaa                	mv	s5,a0
     a56:	c62e                	sw	a1,12(sp)
     a58:	4b01                	li	s6,0
     a5a:	ce818a13          	addi	s4,gp,-792 # 200006a8 <HostCtl>
     a5e:	04200b93          	li	s7,66
     a62:	99a6                	add	s3,s3,s1
     a64:	0009c403          	lbu	s0,0(s3)
     a68:	00448c13          	addi	s8,s1,4
     a6c:	4d15                	li	s10,5
     a6e:	c821                	beqz	s0,abe <KM_DealHidReportDesc+0x7c>
     a70:	0009c903          	lbu	s2,0(s3)
     a74:	40890933          	sub	s2,s2,s0
     a78:	0ff97913          	andi	s2,s2,255
     a7c:	037906b3          	mul	a3,s2,s7
     a80:	009687b3          	add	a5,a3,s1
     a84:	97d2                	add	a5,a5,s4
     a86:	23de                	lhu	a5,4(a5)
     a88:	c39d                	beqz	a5,aae <KM_DealHidReportDesc+0x6c>
     a8a:	96e2                	add	a3,a3,s8
     a8c:	00da0db3          	add	s11,s4,a3
     a90:	4532                	lw	a0,12(sp)
     a92:	001b0713          	addi	a4,s6,1
     a96:	86ee                	mv	a3,s11
     a98:	8d418613          	addi	a2,gp,-1836 # 20000294 <Com_Buf>
     a9c:	85ca                	mv	a1,s2
     a9e:	0ff77b13          	andi	s6,a4,255
     aa2:	04a010ef          	jal	ra,1aec <HID_GetHidDesr>
     aa6:	e901                	bnez	a0,ab6 <KM_DealHidReportDesc+0x74>
     aa8:	85ca                	mv	a1,s2
     aaa:	8556                	mv	a0,s5
     aac:	3511                	jal	8b0 <KM_AnalyzeHidReportDesc>
     aae:	147d                	addi	s0,s0,-1
     ab0:	0ff47413          	andi	s0,s0,255
     ab4:	bf6d                	j	a6e <KM_DealHidReportDesc+0x2c>
     ab6:	fd6d7de3          	bgeu	s10,s6,a90 <KM_DealHidReportDesc+0x4e>
     aba:	04800413          	li	s0,72
     abe:	8522                	mv	a0,s0
     ac0:	0141                	addi	sp,sp,16
     ac2:	e7aff06f          	j	13c <__riscv_restore_12>

00000ac6 <HUB_AnalyzeConfigDesc>:
     ac6:	10a00713          	li	a4,266
     aca:	02e50533          	mul	a0,a0,a4
     ace:	8d418793          	addi	a5,gp,-1836 # 20000294 <Com_Buf>
     ad2:	33b0                	lbu	a2,3(a5)
     ad4:	23bc                	lbu	a5,2(a5)
     ad6:	0622                	slli	a2,a2,0x8
     ad8:	ce818693          	addi	a3,gp,-792 # 200006a8 <HostCtl>
     adc:	963e                	add	a2,a2,a5
     ade:	8d418593          	addi	a1,gp,-1836 # 20000294 <Com_Buf>
     ae2:	4781                	li	a5,0
     ae4:	4309                	li	t1,2
     ae6:	4811                	li	a6,4
     ae8:	4e25                	li	t3,9
     aea:	4e95                	li	t4,5
     aec:	9536                	add	a0,a0,a3
     aee:	4885                	li	a7,1
     af0:	00c7c463          	blt	a5,a2,af8 <HUB_AnalyzeConfigDesc+0x32>
     af4:	4501                	li	a0,0
     af6:	8082                	ret
     af8:	00f58733          	add	a4,a1,a5
     afc:	00074f03          	lbu	t5,0(a4)
     b00:	3314                	lbu	a3,1(a4)
     b02:	97fa                	add	a5,a5,t5
     b04:	07c2                	slli	a5,a5,0x10
     b06:	83c1                	srli	a5,a5,0x10
     b08:	00669a63          	bne	a3,t1,b1c <HUB_AnalyzeConfigDesc+0x56>
     b0c:	2358                	lbu	a4,4(a4)
     b0e:	00e8f563          	bgeu	a7,a4,b18 <HUB_AnalyzeConfigDesc+0x52>
     b12:	01150023          	sb	a7,0(a0) # 20000000 <_data_vma>
     b16:	bfe9                	j	af0 <HUB_AnalyzeConfigDesc+0x2a>
     b18:	a118                	sb	a4,0(a0)
     b1a:	bfd9                	j	af0 <HUB_AnalyzeConfigDesc+0x2a>
     b1c:	fd069ae3          	bne	a3,a6,af0 <HUB_AnalyzeConfigDesc+0x2a>
     b20:	3358                	lbu	a4,5(a4)
     b22:	fdc717e3          	bne	a4,t3,af0 <HUB_AnalyzeConfigDesc+0x2a>
     b26:	00f58733          	add	a4,a1,a5
     b2a:	3314                	lbu	a3,1(a4)
     b2c:	fd0682e3          	beq	a3,a6,af0 <HUB_AnalyzeConfigDesc+0x2a>
     b30:	fcc7d0e3          	bge	a5,a2,af0 <HUB_AnalyzeConfigDesc+0x2a>
     b34:	00074f03          	lbu	t5,0(a4)
     b38:	97fa                	add	a5,a5,t5
     b3a:	07c2                	slli	a5,a5,0x10
     b3c:	83c1                	srli	a5,a5,0x10
     b3e:	ffd694e3          	bne	a3,t4,b26 <HUB_AnalyzeConfigDesc+0x60>
     b42:	2334                	lbu	a3,2(a4)
     b44:	01869f13          	slli	t5,a3,0x18
     b48:	418f5f13          	srai	t5,t5,0x18
     b4c:	fc0f5de3          	bgez	t5,b26 <HUB_AnalyzeConfigDesc+0x60>
     b50:	8abd                	andi	a3,a3,15
     b52:	b514                	sb	a3,9(a0)
     b54:	3334                	lbu	a3,3(a4)
     b56:	00474f03          	lbu	t5,4(a4)
     b5a:	b554                	sb	a3,13(a0)
     b5c:	3354                	lbu	a3,5(a4)
     b5e:	2378                	lbu	a4,6(a4)
     b60:	06a2                	slli	a3,a3,0x8
     b62:	ad78                	sb	a4,30(a0)
     b64:	2518                	lbu	a4,8(a0)
     b66:	96fa                	add	a3,a3,t5
     b68:	a936                	sh	a3,18(a0)
     b6a:	0705                	addi	a4,a4,1
     b6c:	a518                	sb	a4,8(a0)
     b6e:	bf65                	j	b26 <HUB_AnalyzeConfigDesc+0x60>

00000b70 <USBH_EnumHubDevice>:
     b70:	da6ff2ef          	jal	t0,116 <__riscv_save_4>
     b74:	61c18793          	addi	a5,gp,1564 # 20000fdc <RootHubDev>
     b78:	33c8                	lbu	a0,5(a5)
     b7a:	1141                	addi	sp,sp,-16
     b7c:	37a9                	jal	ac6 <HUB_AnalyzeConfigDesc>
     b7e:	892a                	mv	s2,a0
     b80:	ed55                	bnez	a0,c3c <USBH_EnumHubDevice+0xcc>
     b82:	8d418793          	addi	a5,gp,-1836 # 20000294 <Com_Buf>
     b86:	23ec                	lbu	a1,6(a5)
     b88:	61c18413          	addi	s0,gp,1564 # 20000fdc <RootHubDev>
     b8c:	8d418a13          	addi	s4,gp,-1836 # 20000294 <Com_Buf>
     b90:	c591                	beqz	a1,b9c <USBH_EnumHubDevice+0x2c>
     b92:	2048                	lbu	a0,4(s0)
     b94:	8d418613          	addi	a2,gp,-1836 # 20000294 <Com_Buf>
     b98:	60b000ef          	jal	ra,19a2 <USBFSH_GetStrDescr>
     b9c:	cd418793          	addi	a5,gp,-812 # 20000694 <DevDesc_Buf>
     ba0:	27ec                	lbu	a1,14(a5)
     ba2:	cd418913          	addi	s2,gp,-812 # 20000694 <DevDesc_Buf>
     ba6:	c591                	beqz	a1,bb2 <USBH_EnumHubDevice+0x42>
     ba8:	2048                	lbu	a0,4(s0)
     baa:	8d418613          	addi	a2,gp,-1836 # 20000294 <Com_Buf>
     bae:	5f5000ef          	jal	ra,19a2 <USBFSH_GetStrDescr>
     bb2:	00f94583          	lbu	a1,15(s2)
     bb6:	c591                	beqz	a1,bc2 <USBH_EnumHubDevice+0x52>
     bb8:	2048                	lbu	a0,4(s0)
     bba:	8d418613          	addi	a2,gp,-1836 # 20000294 <Com_Buf>
     bbe:	5e5000ef          	jal	ra,19a2 <USBFSH_GetStrDescr>
     bc2:	01094583          	lbu	a1,16(s2)
     bc6:	c591                	beqz	a1,bd2 <USBH_EnumHubDevice+0x62>
     bc8:	2048                	lbu	a0,4(s0)
     bca:	8d418613          	addi	a2,gp,-1836 # 20000294 <Com_Buf>
     bce:	5d5000ef          	jal	ra,19a2 <USBFSH_GetStrDescr>
     bd2:	4995                	li	s3,5
     bd4:	2048                	lbu	a0,4(s0)
     bd6:	00e10613          	addi	a2,sp,14
     bda:	8d418593          	addi	a1,gp,-1836 # 20000294 <Com_Buf>
     bde:	002010ef          	jal	ra,1be0 <HUB_GetClassDevDescr>
     be2:	892a                	mv	s2,a0
     be4:	e529                	bnez	a0,c2e <USBH_EnumHubDevice+0xbe>
     be6:	002a4703          	lbu	a4,2(s4)
     bea:	4791                	li	a5,4
     bec:	02e7ef63          	bltu	a5,a4,c2a <USBH_EnumHubDevice+0xba>
     bf0:	a078                	sb	a4,6(s0)
     bf2:	4981                	li	s3,0
     bf4:	4485                	li	s1,1
     bf6:	4a11                	li	s4,4
     bf8:	207c                	lbu	a5,6(s0)
     bfa:	0497e163          	bltu	a5,s1,c3c <USBH_EnumHubDevice+0xcc>
     bfe:	2048                	lbu	a0,4(s0)
     c00:	4621                	li	a2,8
     c02:	0ff4f593          	andi	a1,s1,255
     c06:	7b5000ef          	jal	ra,1bba <HUB_SetPortFeature>
     c0a:	cd01                	beqz	a0,c22 <USBH_EnumHubDevice+0xb2>
     c0c:	14fd                	addi	s1,s1,-1
     c0e:	0985                	addi	s3,s3,1
     c10:	4515                	li	a0,5
     c12:	04c2                	slli	s1,s1,0x10
     c14:	0ff9f993          	andi	s3,s3,255
     c18:	248030ef          	jal	ra,3e60 <Delay_Ms>
     c1c:	80c1                	srli	s1,s1,0x10
     c1e:	013a6d63          	bltu	s4,s3,c38 <USBH_EnumHubDevice+0xc8>
     c22:	0485                	addi	s1,s1,1
     c24:	04c2                	slli	s1,s1,0x10
     c26:	80c1                	srli	s1,s1,0x10
     c28:	bfc1                	j	bf8 <USBH_EnumHubDevice+0x88>
     c2a:	a07c                	sb	a5,6(s0)
     c2c:	b7d9                	j	bf2 <USBH_EnumHubDevice+0x82>
     c2e:	19fd                	addi	s3,s3,-1
     c30:	0ff9f993          	andi	s3,s3,255
     c34:	fa0990e3          	bnez	s3,bd4 <USBH_EnumHubDevice+0x64>
     c38:	0fe00913          	li	s2,254
     c3c:	854a                	mv	a0,s2
     c3e:	0141                	addi	sp,sp,16
     c40:	d0aff06f          	j	14a <__riscv_restore_4>

00000c44 <HUB_Port_PreEnum1>:
     c44:	cd2ff2ef          	jal	t0,116 <__riscv_save_4>
     c48:	219c                	lbu	a5,0(a1)
     c4a:	1141                	addi	sp,sp,-16
     c4c:	40a7d7b3          	sra	a5,a5,a0
     c50:	8b85                	andi	a5,a5,1
     c52:	c385                	beqz	a5,c72 <HUB_Port_PreEnum1+0x2e>
     c54:	61c18793          	addi	a5,gp,1564 # 20000fdc <RootHubDev>
     c58:	85aa                	mv	a1,a0
     c5a:	84aa                	mv	s1,a0
     c5c:	23c8                	lbu	a0,4(a5)
     c5e:	0070                	addi	a2,sp,12
     c60:	61c18913          	addi	s2,gp,1564 # 20000fdc <RootHubDev>
     c64:	705000ef          	jal	ra,1b68 <HUB_GetPortStatus>
     c68:	842a                	mv	s0,a0
     c6a:	e539                	bnez	a0,cb8 <HUB_Port_PreEnum1+0x74>
     c6c:	871c                	lbu	a5,14(sp)
     c6e:	8b85                	andi	a5,a5,1
     c70:	e781                	bnez	a5,c78 <HUB_Port_PreEnum1+0x34>
     c72:	0fe00413          	li	s0,254
     c76:	a089                	j	cb8 <HUB_Port_PreEnum1+0x74>
     c78:	00494503          	lbu	a0,4(s2)
     c7c:	4641                	li	a2,16
     c7e:	85a6                	mv	a1,s1
     c80:	715000ef          	jal	ra,1b94 <HUB_ClearPortFeature>
     c84:	842a                	mv	s0,a0
     c86:	e90d                	bnez	a0,cb8 <HUB_Port_PreEnum1+0x74>
     c88:	49a9                	li	s3,10
     c8a:	00494503          	lbu	a0,4(s2)
     c8e:	0070                	addi	a2,sp,12
     c90:	85a6                	mv	a1,s1
     c92:	6d7000ef          	jal	ra,1b68 <HUB_GetPortStatus>
     c96:	e50d                	bnez	a0,cc0 <HUB_Port_PreEnum1+0x7c>
     c98:	871c                	lbu	a5,14(sp)
     c9a:	0405                	addi	s0,s0,1
     c9c:	0ff47413          	andi	s0,s0,255
     ca0:	8b85                	andi	a5,a5,1
     ca2:	c781                	beqz	a5,caa <HUB_Port_PreEnum1+0x66>
     ca4:	ff3413e3          	bne	s0,s3,c8a <HUB_Port_PreEnum1+0x46>
     ca8:	b7e9                	j	c72 <HUB_Port_PreEnum1+0x2e>
     caa:	47a9                	li	a5,10
     cac:	fcf403e3          	beq	s0,a5,c72 <HUB_Port_PreEnum1+0x2e>
     cb0:	861c                	lbu	a5,12(sp)
     cb2:	4459                	li	s0,22
     cb4:	8b85                	andi	a5,a5,1
     cb6:	ffd5                	bnez	a5,c72 <HUB_Port_PreEnum1+0x2e>
     cb8:	8522                	mv	a0,s0
     cba:	0141                	addi	sp,sp,16
     cbc:	c8eff06f          	j	14a <__riscv_restore_4>
     cc0:	842a                	mv	s0,a0
     cc2:	bfdd                	j	cb8 <HUB_Port_PreEnum1+0x74>

00000cc4 <HUB_Port_PreEnum2>:
     cc4:	c52ff2ef          	jal	t0,116 <__riscv_save_4>
     cc8:	219c                	lbu	a5,0(a1)
     cca:	1141                	addi	sp,sp,-16
     ccc:	0fe00413          	li	s0,254
     cd0:	40a7d7b3          	sra	a5,a5,a0
     cd4:	8b85                	andi	a5,a5,1
     cd6:	c3d1                	beqz	a5,d5a <HUB_Port_PreEnum2+0x96>
     cd8:	61c18793          	addi	a5,gp,1564 # 20000fdc <RootHubDev>
     cdc:	85aa                	mv	a1,a0
     cde:	84aa                	mv	s1,a0
     ce0:	23c8                	lbu	a0,4(a5)
     ce2:	4611                	li	a2,4
     ce4:	61c18913          	addi	s2,gp,1564 # 20000fdc <RootHubDev>
     ce8:	6d3000ef          	jal	ra,1bba <HUB_SetPortFeature>
     cec:	842a                	mv	s0,a0
     cee:	e535                	bnez	a0,d5a <HUB_Port_PreEnum2+0x96>
     cf0:	4529                	li	a0,10
     cf2:	16e030ef          	jal	ra,3e60 <Delay_Ms>
     cf6:	49ad                	li	s3,11
     cf8:	00494503          	lbu	a0,4(s2)
     cfc:	0070                	addi	a2,sp,12
     cfe:	85a6                	mv	a1,s1
     d00:	669000ef          	jal	ra,1b68 <HUB_GetPortStatus>
     d04:	e931                	bnez	a0,d58 <HUB_Port_PreEnum2+0x94>
     d06:	871c                	lbu	a5,14(sp)
     d08:	0405                	addi	s0,s0,1
     d0a:	0ff47413          	andi	s0,s0,255
     d0e:	8bc1                	andi	a5,a5,16
     d10:	ef9d                	bnez	a5,d4e <HUB_Port_PreEnum2+0x8a>
     d12:	ff3413e3          	bne	s0,s3,cf8 <HUB_Port_PreEnum2+0x34>
     d16:	00494503          	lbu	a0,4(s2)
     d1a:	4651                	li	a2,20
     d1c:	85a6                	mv	a1,s1
     d1e:	677000ef          	jal	ra,1b94 <HUB_ClearPortFeature>
     d22:	4401                	li	s0,0
     d24:	49ad                	li	s3,11
     d26:	00494503          	lbu	a0,4(s2)
     d2a:	0070                	addi	a2,sp,12
     d2c:	85a6                	mv	a1,s1
     d2e:	63b000ef          	jal	ra,1b68 <HUB_GetPortStatus>
     d32:	e11d                	bnez	a0,d58 <HUB_Port_PreEnum2+0x94>
     d34:	871c                	lbu	a5,14(sp)
     d36:	0405                	addi	s0,s0,1
     d38:	0ff47413          	andi	s0,s0,255
     d3c:	8bc1                	andi	a5,a5,16
     d3e:	c395                	beqz	a5,d62 <HUB_Port_PreEnum2+0x9e>
     d40:	ff3413e3          	bne	s0,s3,d26 <HUB_Port_PreEnum2+0x62>
     d44:	861c                	lbu	a5,12(sp)
     d46:	8b85                	andi	a5,a5,1
     d48:	c791                	beqz	a5,d54 <HUB_Port_PreEnum2+0x90>
     d4a:	4555                	li	a0,21
     d4c:	a031                	j	d58 <HUB_Port_PreEnum2+0x94>
     d4e:	47a9                	li	a5,10
     d50:	fcf413e3          	bne	s0,a5,d16 <HUB_Port_PreEnum2+0x52>
     d54:	0fe00513          	li	a0,254
     d58:	842a                	mv	s0,a0
     d5a:	8522                	mv	a0,s0
     d5c:	0141                	addi	sp,sp,16
     d5e:	becff06f          	j	14a <__riscv_restore_4>
     d62:	47a9                	li	a5,10
     d64:	fef408e3          	beq	s0,a5,d54 <HUB_Port_PreEnum2+0x90>
     d68:	bff1                	j	d44 <HUB_Port_PreEnum2+0x80>

00000d6a <HUB_CheckPortSpeed>:
     d6a:	bc6ff2ef          	jal	t0,130 <__riscv_save_0>
     d6e:	842e                	mv	s0,a1
     d70:	862e                	mv	a2,a1
     d72:	85aa                	mv	a1,a0
     d74:	6201c503          	lbu	a0,1568(gp) # 20000fe0 <RootHubDev+0x4>
     d78:	5f1000ef          	jal	ra,1b68 <HUB_GetPortStatus>
     d7c:	e911                	bnez	a0,d90 <HUB_CheckPortSpeed+0x26>
     d7e:	301c                	lbu	a5,1(s0)
     d80:	0027f713          	andi	a4,a5,2
     d84:	e711                	bnez	a4,d90 <HUB_CheckPortSpeed+0x26>
     d86:	0047f513          	andi	a0,a5,4
     d8a:	00a03533          	snez	a0,a0
     d8e:	0505                	addi	a0,a0,1
     d90:	bc4ff06f          	j	154 <__riscv_restore_0>

00000d94 <USBH_EnumHubPortDevice>:
     d94:	b74ff2ef          	jal	t0,108 <__riscv_save_10>
     d98:	4799                	li	a5,6
     d9a:	02f507b3          	mul	a5,a0,a5
     d9e:	61c18913          	addi	s2,gp,1564 # 20000fdc <RootHubDev>
     da2:	1141                	addi	sp,sp,-16
     da4:	89aa                	mv	s3,a0
     da6:	8b2e                	mv	s6,a1
     da8:	8a32                	mv	s4,a2
     daa:	44a9                	li	s1,10
     dac:	61c18413          	addi	s0,gp,1564 # 20000fdc <RootHubDev>
     db0:	07ad                	addi	a5,a5,11
     db2:	993e                	add	s2,s2,a5
     db4:	8ade                	mv	s5,s7
     db6:	cd418593          	addi	a1,gp,-812 # 20000694 <DevDesc_Buf>
     dba:	854a                	mv	a0,s2
     dbc:	341000ef          	jal	ra,18fc <USBFSH_GetDeviceDescr>
     dc0:	c911                	beqz	a0,dd4 <USBH_EnumHubPortDevice+0x40>
     dc2:	14fd                	addi	s1,s1,-1
     dc4:	0ff4f493          	andi	s1,s1,255
     dc8:	f4fd                	bnez	s1,db6 <USBH_EnumHubPortDevice+0x22>
     dca:	04500513          	li	a0,69
     dce:	0141                	addi	sp,sp,16
     dd0:	b70ff06f          	j	140 <__riscv_restore_10>
     dd4:	4499                	li	s1,6
     dd6:	029984b3          	mul	s1,s3,s1
     dda:	4929                	li	s2,10
     ddc:	94a2                	add	s1,s1,s0
     dde:	24cc                	lbu	a1,12(s1)
     de0:	34a8                	lbu	a0,11(s1)
     de2:	0589                	addi	a1,a1,2
     de4:	0ff5f593          	andi	a1,a1,255
     de8:	411000ef          	jal	ra,19f8 <USBFSH_SetUsbAddress>
     dec:	e13d                	bnez	a0,e52 <USBH_EnumHubPortDevice+0xbe>
     dee:	4919                	li	s2,6
     df0:	03298933          	mul	s2,s3,s2
     df4:	24dc                	lbu	a5,12(s1)
     df6:	4515                	li	a0,5
     df8:	0789                	addi	a5,a5,2
     dfa:	00fb0023          	sb	a5,0(s6)
     dfe:	062030ef          	jal	ra,3e60 <Delay_Ms>
     e02:	44a9                	li	s1,10
     e04:	8d418b13          	addi	s6,gp,-1836 # 20000294 <Com_Buf>
     e08:	9922                	add	s2,s2,s0
     e0a:	00b94503          	lbu	a0,11(s2)
     e0e:	00e10693          	addi	a3,sp,14
     e12:	40000613          	li	a2,1024
     e16:	85da                	mv	a1,s6
     e18:	323000ef          	jal	ra,193a <USBFSH_GetConfigDescr>
     e1c:	e139                	bnez	a0,e62 <USBH_EnumHubPortDevice+0xce>
     e1e:	8652                	mv	a2,s4
     e20:	8d418593          	addi	a1,gp,-1836 # 20000294 <Com_Buf>
     e24:	cd418513          	addi	a0,gp,-812 # 20000694 <DevDesc_Buf>
     e28:	005b4903          	lbu	s2,5(s6)
     e2c:	f62ff0ef          	jal	ra,58e <USBH_AnalyseType>
     e30:	4799                	li	a5,6
     e32:	02f989b3          	mul	s3,s3,a5
     e36:	44a9                	li	s1,10
     e38:	944e                	add	s0,s0,s3
     e3a:	3428                	lbu	a0,11(s0)
     e3c:	85ca                	mv	a1,s2
     e3e:	3ef000ef          	jal	ra,1a2c <USBFSH_SetUsbConfig>
     e42:	d551                	beqz	a0,dce <USBH_EnumHubPortDevice+0x3a>
     e44:	14fd                	addi	s1,s1,-1
     e46:	0ff4f493          	andi	s1,s1,255
     e4a:	f8e5                	bnez	s1,e3a <USBH_EnumHubPortDevice+0xa6>
     e4c:	04900513          	li	a0,73
     e50:	bfbd                	j	dce <USBH_EnumHubPortDevice+0x3a>
     e52:	197d                	addi	s2,s2,-1
     e54:	0ff97913          	andi	s2,s2,255
     e58:	f80913e3          	bnez	s2,dde <USBH_EnumHubPortDevice+0x4a>
     e5c:	04600513          	li	a0,70
     e60:	b7bd                	j	dce <USBH_EnumHubPortDevice+0x3a>
     e62:	14fd                	addi	s1,s1,-1
     e64:	0ff4f493          	andi	s1,s1,255
     e68:	f0cd                	bnez	s1,e0a <USBH_EnumHubPortDevice+0x76>
     e6a:	b785                	j	dca <USBH_EnumHubPortDevice+0x36>

00000e6c <KB_AnalyzeKeyValue>:
     e6c:	a94ff2ef          	jal	t0,100 <__riscv_save_12>
     e70:	04200d13          	li	s10,66
     e74:	03a58d33          	mul	s10,a1,s10
     e78:	10a00593          	li	a1,266
     e7c:	8932                	mv	s2,a2
     e7e:	8c36                	mv	s8,a3
     e80:	4985                	li	s3,1
     e82:	4b09                	li	s6,2
     e84:	4b8d                	li	s7,3
     e86:	02b50533          	mul	a0,a0,a1
     e8a:	956a                	add	a0,a0,s10
     e8c:	ce818d13          	addi	s10,gp,-792 # 200006a8 <HostCtl>
     e90:	9d2a                	add	s10,s10,a0
     e92:	03ed4a03          	lbu	s4,62(s10)
     e96:	041d4483          	lbu	s1,65(s10)
     e9a:	03fd4a83          	lbu	s5,63(s10)
     e9e:	8dd2                	mv	s11,s4
     ea0:	414d8433          	sub	s0,s11,s4
     ea4:	0ff47413          	andi	s0,s0,255
     ea8:	041d4c83          	lbu	s9,65(s10)
     eac:	01bafa63          	bgeu	s5,s11,ec0 <KB_AnalyzeKeyValue+0x54>
     eb0:	41948433          	sub	s0,s1,s9
     eb4:	00803433          	snez	s0,s0
     eb8:	048d0123          	sb	s0,66(s10)
     ebc:	a80ff06f          	j	13c <__riscv_restore_12>
     ec0:	013d9f63          	bne	s11,s3,ede <KB_AnalyzeKeyValue+0x72>
     ec4:	8662                	mv	a2,s8
     ec6:	05300593          	li	a1,83
     eca:	854a                	mv	a0,s2
     ecc:	08c030ef          	jal	ra,3f58 <memchr>
     ed0:	008d9433          	sll	s0,s11,s0
     ed4:	e105                	bnez	a0,ef4 <KB_AnalyzeKeyValue+0x88>
     ed6:	0d85                	addi	s11,s11,1
     ed8:	0ffdfd93          	andi	s11,s11,255
     edc:	b7d1                	j	ea0 <KB_AnalyzeKeyValue+0x34>
     ede:	036d9063          	bne	s11,s6,efe <KB_AnalyzeKeyValue+0x92>
     ee2:	8662                	mv	a2,s8
     ee4:	03900593          	li	a1,57
     ee8:	854a                	mv	a0,s2
     eea:	06e030ef          	jal	ra,3f58 <memchr>
     eee:	d565                	beqz	a0,ed6 <KB_AnalyzeKeyValue+0x6a>
     ef0:	00899433          	sll	s0,s3,s0
     ef4:	01944433          	xor	s0,s0,s9
     ef8:	048d00a3          	sb	s0,65(s10)
     efc:	bfe9                	j	ed6 <KB_AnalyzeKeyValue+0x6a>
     efe:	fd7d9ce3          	bne	s11,s7,ed6 <KB_AnalyzeKeyValue+0x6a>
     f02:	8662                	mv	a2,s8
     f04:	04700593          	li	a1,71
     f08:	b7c5                	j	ee8 <KB_AnalyzeKeyValue+0x7c>

00000f0a <KB_SetReport>:
     f0a:	a26ff2ef          	jal	t0,130 <__riscv_save_0>
     f0e:	86aa                	mv	a3,a0
     f10:	10a00813          	li	a6,266
     f14:	852e                	mv	a0,a1
     f16:	85b2                	mv	a1,a2
     f18:	04200613          	li	a2,66
     f1c:	03068833          	mul	a6,a3,a6
     f20:	ce818793          	addi	a5,gp,-792 # 200006a8 <HostCtl>
     f24:	1141                	addi	sp,sp,-16
     f26:	ce818713          	addi	a4,gp,-792 # 200006a8 <HostCtl>
     f2a:	02c58633          	mul	a2,a1,a2
     f2e:	9642                	add	a2,a2,a6
     f30:	97b2                	add	a5,a5,a2
     f32:	03c7c803          	lbu	a6,60(a5)
     f36:	0417c603          	lbu	a2,65(a5)
     f3a:	04080063          	beqz	a6,f7a <KB_SetReport+0x70>
     f3e:	03d7c783          	lbu	a5,61(a5)
     f42:	86d0                	sb	a2,13(sp)
     f44:	865c                	sb	a5,12(sp)
     f46:	4789                	li	a5,2
     f48:	10a00613          	li	a2,266
     f4c:	877c                	sh	a5,14(sp)
     f4e:	04200793          	li	a5,66
     f52:	02c686b3          	mul	a3,a3,a2
     f56:	4885                	li	a7,1
     f58:	02f587b3          	mul	a5,a1,a5
     f5c:	00d78833          	add	a6,a5,a3
     f60:	983a                	add	a6,a6,a4
     f62:	04084603          	lbu	a2,64(a6)
     f66:	01161d63          	bne	a2,a7,f80 <KB_SetReport+0x76>
     f6a:	00e10693          	addi	a3,sp,14
     f6e:	0070                	addi	a2,sp,12
     f70:	3a7000ef          	jal	ra,1b16 <HID_SetReport>
     f74:	0141                	addi	sp,sp,16
     f76:	9deff06f          	j	154 <__riscv_restore_0>
     f7a:	8650                	sb	a2,12(sp)
     f7c:	4785                	li	a5,1
     f7e:	b7e9                	j	f48 <KB_SetReport+0x3e>
     f80:	0ff00593          	li	a1,255
     f84:	4501                	li	a0,0
     f86:	feb617e3          	bne	a2,a1,f74 <KB_SetReport+0x6a>
     f8a:	03878793          	addi	a5,a5,56
     f8e:	97b6                	add	a5,a5,a3
     f90:	02784503          	lbu	a0,39(a6)
     f94:	8734                	lhu	a3,14(sp)
     f96:	0070                	addi	a2,sp,12
     f98:	00f705b3          	add	a1,a4,a5
     f9c:	315000ef          	jal	ra,1ab0 <USBFSH_SendEndpData>
     fa0:	bfd1                	j	f74 <KB_SetReport+0x6a>

00000fa2 <USBH_EnumHidDevice>:
     fa2:	966ff2ef          	jal	t0,108 <__riscv_save_10>
     fa6:	89aa                	mv	s3,a0
     fa8:	84ae                	mv	s1,a1
     faa:	f1aff0ef          	jal	ra,6c4 <KM_AnalyzeConfigDesc>
     fae:	8a2a                	mv	s4,a0
     fb0:	e925                	bnez	a0,1020 <USBH_EnumHidDevice+0x7e>
     fb2:	8d418793          	addi	a5,gp,-1836 # 20000294 <Com_Buf>
     fb6:	23ec                	lbu	a1,6(a5)
     fb8:	c591                	beqz	a1,fc4 <USBH_EnumHidDevice+0x22>
     fba:	8d418613          	addi	a2,gp,-1836 # 20000294 <Com_Buf>
     fbe:	8526                	mv	a0,s1
     fc0:	1e3000ef          	jal	ra,19a2 <USBFSH_GetStrDescr>
     fc4:	85a6                	mv	a1,s1
     fc6:	854e                	mv	a0,s3
     fc8:	3cad                	jal	a42 <KM_DealHidReportDesc>
     fca:	cd418793          	addi	a5,gp,-812 # 20000694 <DevDesc_Buf>
     fce:	27ec                	lbu	a1,14(a5)
     fd0:	cd418913          	addi	s2,gp,-812 # 20000694 <DevDesc_Buf>
     fd4:	c591                	beqz	a1,fe0 <USBH_EnumHidDevice+0x3e>
     fd6:	8d418613          	addi	a2,gp,-1836 # 20000294 <Com_Buf>
     fda:	8526                	mv	a0,s1
     fdc:	1c7000ef          	jal	ra,19a2 <USBFSH_GetStrDescr>
     fe0:	00f94583          	lbu	a1,15(s2)
     fe4:	c591                	beqz	a1,ff0 <USBH_EnumHidDevice+0x4e>
     fe6:	8d418613          	addi	a2,gp,-1836 # 20000294 <Com_Buf>
     fea:	8526                	mv	a0,s1
     fec:	1b7000ef          	jal	ra,19a2 <USBFSH_GetStrDescr>
     ff0:	01094583          	lbu	a1,16(s2)
     ff4:	c591                	beqz	a1,1000 <USBH_EnumHidDevice+0x5e>
     ff6:	8d418613          	addi	a2,gp,-1836 # 20000294 <Com_Buf>
     ffa:	8526                	mv	a0,s1
     ffc:	1a7000ef          	jal	ra,19a2 <USBFSH_GetStrDescr>
    1000:	10a00a93          	li	s5,266
    1004:	03598ab3          	mul	s5,s3,s5
    1008:	ce818913          	addi	s2,gp,-792 # 200006a8 <HostCtl>
    100c:	4401                	li	s0,0
    100e:	04200b93          	li	s7,66
    1012:	4c05                	li	s8,1
    1014:	01590b33          	add	s6,s2,s5
    1018:	000b4783          	lbu	a5,0(s6)
    101c:	00f46563          	bltu	s0,a5,1026 <USBH_EnumHidDevice+0x84>
    1020:	8552                	mv	a0,s4
    1022:	91eff06f          	j	140 <__riscv_restore_10>
    1026:	037407b3          	mul	a5,s0,s7
    102a:	97d6                	add	a5,a5,s5
    102c:	97ca                	add	a5,a5,s2
    102e:	23b8                	lbu	a4,2(a5)
    1030:	01871863          	bne	a4,s8,1040 <USBH_EnumHidDevice+0x9e>
    1034:	040780a3          	sb	zero,65(a5)
    1038:	8622                	mv	a2,s0
    103a:	85a6                	mv	a1,s1
    103c:	854e                	mv	a0,s3
    103e:	35f1                	jal	f0a <KB_SetReport>
    1040:	0405                	addi	s0,s0,1
    1042:	0ff47413          	andi	s0,s0,255
    1046:	bfc9                	j	1018 <USBH_EnumHidDevice+0x76>

00001048 <USBH_MainDeal>:
    1048:	8b8ff2ef          	jal	t0,100 <__riscv_save_12>
    104c:	61c1c503          	lbu	a0,1564(gp) # 20000fdc <RootHubDev>
    1050:	1101                	addi	sp,sp,-32
    1052:	61c18413          	addi	s0,gp,1564 # 20000fdc <RootHubDev>
    1056:	2b01                	jal	1566 <USBFSH_CheckRootHubPortStatus>
    1058:	4705                	li	a4,1
    105a:	8d2a                	mv	s10,a0
    105c:	0ae51563          	bne	a0,a4,1106 <USBH_MainDeal+0xbe>
    1060:	892a                	mv	s2,a0
    1062:	a008                	sb	a0,0(s0)
    1064:	000402a3          	sb	zero,5(s0)
    1068:	d68ff0ef          	jal	ra,5d0 <USBH_EnumRootDevice>
    106c:	8d2a                	mv	s10,a0
    106e:	e559                	bnez	a0,10fc <USBH_MainDeal+0xb4>
    1070:	3004                	lbu	s1,1(s0)
    1072:	470d                	li	a4,3
    1074:	06e49463          	bne	s1,a4,10dc <USBH_MainDeal+0x94>
    1078:	204c                	lbu	a1,4(s0)
    107a:	3048                	lbu	a0,5(s0)
    107c:	371d                	jal	fa2 <USBH_EnumHidDevice>
    107e:	8d2a                	mv	s10,a0
    1080:	ed35                	bnez	a0,10fc <USBH_MainDeal+0xb4>
    1082:	8b218023          	sb	s2,-1888(gp) # 20000260 <keyboard_in>
    1086:	a004                	sb	s1,0(s0)
    1088:	2014                	lbu	a3,0(s0)
    108a:	4709                	li	a4,2
    108c:	1cd77863          	bgeu	a4,a3,125c <USBH_MainDeal+0x214>
    1090:	3018                	lbu	a4,1(s0)
    1092:	468d                	li	a3,3
    1094:	3044                	lbu	s1,5(s0)
    1096:	18d71d63          	bne	a4,a3,1230 <USBH_MainDeal+0x1e8>
    109a:	10a00993          	li	s3,266
    109e:	033489b3          	mul	s3,s1,s3
    10a2:	ce818793          	addi	a5,gp,-792 # 200006a8 <HostCtl>
    10a6:	ce818c13          	addi	s8,gp,-792 # 200006a8 <HostCtl>
    10aa:	c23e                	sw	a5,4(sp)
    10ac:	4901                	li	s2,0
    10ae:	9c4e                	add	s8,s8,s3
    10b0:	01a98793          	addi	a5,s3,26
    10b4:	8ce2                	mv	s9,s8
    10b6:	c63e                	sw	a5,12(sp)
    10b8:	000cc703          	lbu	a4,0(s9)
    10bc:	1ae97063          	bgeu	s2,a4,125c <USBH_MainDeal+0x214>
    10c0:	04200713          	li	a4,66
    10c4:	02e90733          	mul	a4,s2,a4
    10c8:	4792                	lw	a5,4(sp)
    10ca:	4a01                	li	s4,0
    10cc:	4dd9                	li	s11,22
    10ce:	01370ab3          	add	s5,a4,s3
    10d2:	9abe                	add	s5,s5,a5
    10d4:	47b2                	lw	a5,12(sp)
    10d6:	97ba                	add	a5,a5,a4
    10d8:	c43e                	sw	a5,8(sp)
    10da:	a87d                	j	1198 <USBH_MainDeal+0x150>
    10dc:	4725                	li	a4,9
    10de:	00e49463          	bne	s1,a4,10e6 <USBH_MainDeal+0x9e>
    10e2:	3479                	jal	b70 <USBH_EnumHubDevice>
    10e4:	e501                	bnez	a0,10ec <USBH_MainDeal+0xa4>
    10e6:	470d                	li	a4,3
    10e8:	a018                	sb	a4,0(s0)
    10ea:	bf79                	j	1088 <USBH_MainDeal+0x40>
    10ec:	4759                	li	a4,22
    10ee:	4d59                	li	s10,22
    10f0:	f8e50ce3          	beq	a0,a4,1088 <USBH_MainDeal+0x40>
    10f4:	4789                	li	a5,2
    10f6:	a01c                	sb	a5,0(s0)
    10f8:	8d2a                	mv	s10,a0
    10fa:	b779                	j	1088 <USBH_MainDeal+0x40>
    10fc:	4759                	li	a4,22
    10fe:	f8ed05e3          	beq	s10,a4,1088 <USBH_MainDeal+0x40>
    1102:	4709                	li	a4,2
    1104:	b7d5                	j	10e8 <USBH_MainDeal+0xa0>
    1106:	f149                	bnez	a0,1088 <USBH_MainDeal+0x40>
    1108:	3044                	lbu	s1,5(s0)
    110a:	467d                	li	a2,31
    110c:	4581                	li	a1,0
    110e:	61c18513          	addi	a0,gp,1564 # 20000fdc <RootHubDev>
    1112:	8a018023          	sb	zero,-1888(gp) # 20000260 <keyboard_in>
    1116:	84aff0ef          	jal	ra,160 <memset>
    111a:	10a00513          	li	a0,266
    111e:	02a484b3          	mul	s1,s1,a0
    1122:	ce818513          	addi	a0,gp,-792 # 200006a8 <HostCtl>
    1126:	10a00613          	li	a2,266
    112a:	4581                	li	a1,0
    112c:	9526                	add	a0,a0,s1
    112e:	832ff0ef          	jal	ra,160 <memset>
    1132:	bf99                	j	1088 <USBH_MainDeal+0x40>
    1134:	014a8bb3          	add	s7,s5,s4
    1138:	022bc683          	lbu	a3,34(s7)
    113c:	01ebc603          	lbu	a2,30(s7)
    1140:	04c6e963          	bltu	a3,a2,1192 <USBH_MainDeal+0x14a>
    1144:	02c6f6b3          	remu	a3,a3,a2
    1148:	47a2                	lw	a5,8(sp)
    114a:	009bc503          	lbu	a0,9(s7)
    114e:	014785b3          	add	a1,a5,s4
    1152:	8d418613          	addi	a2,gp,-1836 # 20000294 <Com_Buf>
    1156:	4792                	lw	a5,4(sp)
    1158:	95be                	add	a1,a1,a5
    115a:	02db8123          	sb	a3,34(s7)
    115e:	01e10693          	addi	a3,sp,30
    1162:	10b000ef          	jal	ra,1a6c <USBFSH_GetEndpData>
    1166:	8d2a                	mv	s10,a0
    1168:	e139                	bnez	a0,11ae <USBH_MainDeal+0x166>
    116a:	90eff0ef          	jal	ra,278 <CombufDeal>
    116e:	002ac683          	lbu	a3,2(s5)
    1172:	4705                	li	a4,1
    1174:	00e69f63          	bne	a3,a4,1192 <USBH_MainDeal+0x14a>
    1178:	87b4                	lhu	a3,30(sp)
    117a:	8d418613          	addi	a2,gp,-1836 # 20000294 <Com_Buf>
    117e:	85ca                	mv	a1,s2
    1180:	8526                	mv	a0,s1
    1182:	31ed                	jal	e6c <KB_AnalyzeKeyValue>
    1184:	042ac703          	lbu	a4,66(s5)
    1188:	c709                	beqz	a4,1192 <USBH_MainDeal+0x14a>
    118a:	204c                	lbu	a1,4(s0)
    118c:	864a                	mv	a2,s2
    118e:	8526                	mv	a0,s1
    1190:	3bad                	jal	f0a <KB_SetReport>
    1192:	0a05                	addi	s4,s4,1
    1194:	0ffa7a13          	andi	s4,s4,255
    1198:	008ac703          	lbu	a4,8(s5)
    119c:	f8ea6ce3          	bltu	s4,a4,1134 <USBH_MainDeal+0xec>
    11a0:	4759                	li	a4,22
    11a2:	0aed0d63          	beq	s10,a4,125c <USBH_MainDeal+0x214>
    11a6:	0905                	addi	s2,s2,1
    11a8:	0ff97913          	andi	s2,s2,255
    11ac:	b731                	j	10b8 <USBH_MainDeal+0x70>
    11ae:	0bb50763          	beq	a0,s11,125c <USBH_MainDeal+0x214>
    11b2:	02e00693          	li	a3,46
    11b6:	fcd51ee3          	bne	a0,a3,1192 <USBH_MainDeal+0x14a>
    11ba:	009bc583          	lbu	a1,9(s7)
    11be:	2048                	lbu	a0,4(s0)
    11c0:	0805e593          	ori	a1,a1,128
    11c4:	089000ef          	jal	ra,1a4c <USBFSH_ClearEndpStall>
    11c8:	001cc683          	lbu	a3,1(s9)
    11cc:	000b8d23          	sb	zero,26(s7)
    11d0:	4625                	li	a2,9
    11d2:	0685                	addi	a3,a3,1
    11d4:	0ff6f693          	andi	a3,a3,255
    11d8:	00dc80a3          	sb	a3,1(s9)
    11dc:	fad67be3          	bgeu	a2,a3,1192 <USBH_MainDeal+0x14a>
    11e0:	467d                	li	a2,31
    11e2:	4581                	li	a1,0
    11e4:	61c18513          	addi	a0,gp,1564 # 20000fdc <RootHubDev>
    11e8:	f79fe0ef          	jal	ra,160 <memset>
    11ec:	be4ff0ef          	jal	ra,5d0 <USBH_EnumRootDevice>
    11f0:	8d2a                	mv	s10,a0
    11f2:	e915                	bnez	a0,1226 <USBH_MainDeal+0x1de>
    11f4:	009bc583          	lbu	a1,9(s7)
    11f8:	2048                	lbu	a0,4(s0)
    11fa:	0805e593          	ori	a1,a1,128
    11fe:	04f000ef          	jal	ra,1a4c <USBFSH_ClearEndpStall>
    1202:	4785                	li	a5,1
    1204:	10a00613          	li	a2,266
    1208:	4581                	li	a1,0
    120a:	000c80a3          	sb	zero,1(s9)
    120e:	8562                	mv	a0,s8
    1210:	a01c                	sb	a5,0(s0)
    1212:	000402a3          	sb	zero,5(s0)
    1216:	f4bfe0ef          	jal	ra,160 <memset>
    121a:	204c                	lbu	a1,4(s0)
    121c:	8526                	mv	a0,s1
    121e:	3351                	jal	fa2 <USBH_EnumHidDevice>
    1220:	8d2a                	mv	s10,a0
    1222:	470d                	li	a4,3
    1224:	c501                	beqz	a0,122c <USBH_MainDeal+0x1e4>
    1226:	f7bd06e3          	beq	s10,s11,1192 <USBH_MainDeal+0x14a>
    122a:	4709                	li	a4,2
    122c:	a018                	sb	a4,0(s0)
    122e:	b795                	j	1192 <USBH_MainDeal+0x14a>
    1230:	46a5                	li	a3,9
    1232:	02d71563          	bne	a4,a3,125c <USBH_MainDeal+0x214>
    1236:	10a00993          	li	s3,266
    123a:	033489b3          	mul	s3,s1,s3
    123e:	ce818a13          	addi	s4,gp,-792 # 200006a8 <HostCtl>
    1242:	ce818913          	addi	s2,gp,-792 # 200006a8 <HostCtl>
    1246:	9a4e                	add	s4,s4,s3
    1248:	022a4703          	lbu	a4,34(s4)
    124c:	01ea4683          	lbu	a3,30(s4)
    1250:	00d77963          	bgeu	a4,a3,1262 <USBH_MainDeal+0x21a>
    1254:	4b01                	li	s6,0
    1256:	2078                	lbu	a4,6(s0)
    1258:	16eb6663          	bltu	s6,a4,13c4 <USBH_MainDeal+0x37c>
    125c:	6105                	addi	sp,sp,32
    125e:	edffe06f          	j	13c <__riscv_restore_12>
    1262:	02d77733          	remu	a4,a4,a3
    1266:	2028                	lbu	a0,2(s0)
    1268:	8d418a93          	addi	s5,gp,-1836 # 20000294 <Com_Buf>
    126c:	02ea0123          	sb	a4,34(s4)
    1270:	2e15                	jal	15a4 <USBFSH_SetSelfAddr>
    1272:	3028                	lbu	a0,3(s0)
    1274:	2691                	jal	15b8 <USBFSH_SetSelfSpeed>
    1276:	009a4503          	lbu	a0,9(s4)
    127a:	01a98593          	addi	a1,s3,26
    127e:	01e10693          	addi	a3,sp,30
    1282:	8d418613          	addi	a2,gp,-1836 # 20000294 <Com_Buf>
    1286:	95ca                	add	a1,a1,s2
    1288:	7e4000ef          	jal	ra,1a6c <USBFSH_GetEndpData>
    128c:	8d2a                	mv	s10,a0
    128e:	f179                	bnez	a0,1254 <USBH_MainDeal+0x20c>
    1290:	000ac703          	lbu	a4,0(s5)
    1294:	4c01                	li	s8,0
    1296:	4cd5                	li	s9,21
    1298:	00e10ea3          	sb	a4,29(sp)
    129c:	4999                	li	s3,6
    129e:	4a8d                	li	s5,3
    12a0:	50000bb7          	lui	s7,0x50000
    12a4:	4b05                	li	s6,1
    12a6:	2074                	lbu	a3,6(s0)
    12a8:	fadc76e3          	bgeu	s8,a3,1254 <USBH_MainDeal+0x20c>
    12ac:	001c0d93          	addi	s11,s8,1
    12b0:	0ffdfa13          	andi	s4,s11,255
    12b4:	01d10593          	addi	a1,sp,29
    12b8:	8552                	mv	a0,s4
    12ba:	98bff0ef          	jal	ra,c44 <HUB_Port_PreEnum1>
    12be:	47d9                	li	a5,22
    12c0:	8d2a                	mv	s10,a0
    12c2:	04f51463          	bne	a0,a5,130a <USBH_MainDeal+0x2c2>
    12c6:	033c0c33          	mul	s8,s8,s3
    12ca:	01d14683          	lbu	a3,29(sp)
    12ce:	01bb1db3          	sll	s11,s6,s11
    12d2:	fffdcd93          	not	s11,s11
    12d6:	00ddfdb3          	and	s11,s11,a3
    12da:	10a00613          	li	a2,266
    12de:	4581                	li	a1,0
    12e0:	01b10ea3          	sb	s11,29(sp)
    12e4:	01840733          	add	a4,s0,s8
    12e8:	2748                	lbu	a0,12(a4)
    12ea:	10a00713          	li	a4,266
    12ee:	02e50533          	mul	a0,a0,a4
    12f2:	954a                	add	a0,a0,s2
    12f4:	e6dfe0ef          	jal	ra,160 <memset>
    12f8:	007c0513          	addi	a0,s8,7
    12fc:	4619                	li	a2,6
    12fe:	4581                	li	a1,0
    1300:	9522                	add	a0,a0,s0
    1302:	e5ffe0ef          	jal	ra,160 <memset>
    1306:	8c52                	mv	s8,s4
    1308:	bf79                	j	12a6 <USBH_MainDeal+0x25e>
    130a:	06400513          	li	a0,100
    130e:	353020ef          	jal	ra,3e60 <Delay_Ms>
    1312:	01d10593          	addi	a1,sp,29
    1316:	8552                	mv	a0,s4
    1318:	9adff0ef          	jal	ra,cc4 <HUB_Port_PreEnum2>
    131c:	8d2a                	mv	s10,a0
    131e:	07951e63          	bne	a0,s9,139a <USBH_MainDeal+0x352>
    1322:	033c07b3          	mul	a5,s8,s3
    1326:	4685                	li	a3,1
    1328:	97a2                	add	a5,a5,s0
    132a:	b3f4                	sb	a3,7(a5)
    132c:	46a1                	li	a3,8
    132e:	b7b4                	sb	a3,11(a5)
    1330:	01478623          	sb	s4,12(a5)
    1334:	033c0db3          	mul	s11,s8,s3
    1338:	8d418593          	addi	a1,gp,-1836 # 20000294 <Com_Buf>
    133c:	8552                	mv	a0,s4
    133e:	3435                	jal	d6a <HUB_CheckPortSpeed>
    1340:	9da2                	add	s11,s11,s0
    1342:	00ad8523          	sb	a0,10(s11)
    1346:	009dc503          	lbu	a0,9(s11)
    134a:	2ca9                	jal	15a4 <USBFSH_SetSelfAddr>
    134c:	00adc503          	lbu	a0,10(s11)
    1350:	24a5                	jal	15b8 <USBFSH_SetSelfSpeed>
    1352:	303c                	lbu	a5,3(s0)
    1354:	c799                	beqz	a5,1362 <USBH_MainDeal+0x31a>
    1356:	001bc783          	lbu	a5,1(s7) # 50000001 <_eusrstack+0x2fffb001>
    135a:	0fb7f793          	andi	a5,a5,251
    135e:	00fb80a3          	sb	a5,1(s7)
    1362:	033c0db3          	mul	s11,s8,s3
    1366:	8562                	mv	a0,s8
    1368:	008d8613          	addi	a2,s11,8
    136c:	009d8593          	addi	a1,s11,9
    1370:	9622                	add	a2,a2,s0
    1372:	95a2                	add	a1,a1,s0
    1374:	a21ff0ef          	jal	ra,d94 <USBH_EnumHubPortDevice>
    1378:	8d2a                	mv	s10,a0
    137a:	9da2                	add	s11,s11,s0
    137c:	e121                	bnez	a0,13bc <USBH_MainDeal+0x374>
    137e:	008dc703          	lbu	a4,8(s11)
    1382:	01571963          	bne	a4,s5,1394 <USBH_MainDeal+0x34c>
    1386:	00bdc583          	lbu	a1,11(s11)
    138a:	00cdc503          	lbu	a0,12(s11)
    138e:	3911                	jal	fa2 <USBH_EnumHidDevice>
    1390:	8d2a                	mv	s10,a0
    1392:	f935                	bnez	a0,1306 <USBH_MainDeal+0x2be>
    1394:	015d83a3          	sb	s5,7(s11)
    1398:	b7bd                	j	1306 <USBH_MainDeal+0x2be>
    139a:	01d14683          	lbu	a3,29(sp)
    139e:	01bb1db3          	sll	s11,s6,s11
    13a2:	fffdcd93          	not	s11,s11
    13a6:	00ddfdb3          	and	s11,s11,a3
    13aa:	033c06b3          	mul	a3,s8,s3
    13ae:	01b10ea3          	sb	s11,29(sp)
    13b2:	96a2                	add	a3,a3,s0
    13b4:	32f4                	lbu	a3,7(a3)
    13b6:	f56698e3          	bne	a3,s6,1306 <USBH_MainDeal+0x2be>
    13ba:	bfad                	j	1334 <USBH_MainDeal+0x2ec>
    13bc:	4789                	li	a5,2
    13be:	00fd83a3          	sb	a5,7(s11)
    13c2:	b791                	j	1306 <USBH_MainDeal+0x2be>
    13c4:	4799                	li	a5,6
    13c6:	02fb04b3          	mul	s1,s6,a5
    13ca:	468d                	li	a3,3
    13cc:	94a2                	add	s1,s1,s0
    13ce:	30f8                	lbu	a4,7(s1)
    13d0:	0cd71d63          	bne	a4,a3,14aa <USBH_MainDeal+0x462>
    13d4:	2494                	lbu	a3,8(s1)
    13d6:	0ce69a63          	bne	a3,a4,14aa <USBH_MainDeal+0x462>
    13da:	00c4cc03          	lbu	s8,12(s1)
    13de:	10a00793          	li	a5,266
    13e2:	4a01                	li	s4,0
    13e4:	02fc0bb3          	mul	s7,s8,a5
    13e8:	c25e                	sw	s7,4(sp)
    13ea:	01790db3          	add	s11,s2,s7
    13ee:	000dc703          	lbu	a4,0(s11)
    13f2:	0aea7c63          	bgeu	s4,a4,14aa <USBH_MainDeal+0x462>
    13f6:	04200713          	li	a4,66
    13fa:	02ea0733          	mul	a4,s4,a4
    13fe:	4792                	lw	a5,4(sp)
    1400:	01ab8693          	addi	a3,s7,26
    1404:	4981                	li	s3,0
    1406:	00f70ab3          	add	s5,a4,a5
    140a:	00e687b3          	add	a5,a3,a4
    140e:	9aca                	add	s5,s5,s2
    1410:	c43e                	sw	a5,8(sp)
    1412:	a8ad                	j	148c <USBH_MainDeal+0x444>
    1414:	013a86b3          	add	a3,s5,s3
    1418:	0226c703          	lbu	a4,34(a3)
    141c:	2ef0                	lbu	a2,30(a3)
    141e:	06c76463          	bltu	a4,a2,1486 <USBH_MainDeal+0x43e>
    1422:	02c77733          	remu	a4,a4,a2
    1426:	3488                	lbu	a0,9(s1)
    1428:	02e68123          	sb	a4,34(a3)
    142c:	2aa5                	jal	15a4 <USBFSH_SetSelfAddr>
    142e:	24a8                	lbu	a0,10(s1)
    1430:	2261                	jal	15b8 <USBFSH_SetSelfSpeed>
    1432:	303c                	lbu	a5,3(s0)
    1434:	c799                	beqz	a5,1442 <USBH_MainDeal+0x3fa>
    1436:	50000737          	lui	a4,0x50000
    143a:	331c                	lbu	a5,1(a4)
    143c:	0fb7f793          	andi	a5,a5,251
    1440:	b31c                	sb	a5,1(a4)
    1442:	47a2                	lw	a5,8(sp)
    1444:	01e10693          	addi	a3,sp,30
    1448:	8d418613          	addi	a2,gp,-1836 # 20000294 <Com_Buf>
    144c:	013785b3          	add	a1,a5,s3
    1450:	013a87b3          	add	a5,s5,s3
    1454:	3788                	lbu	a0,9(a5)
    1456:	95ca                	add	a1,a1,s2
    1458:	614000ef          	jal	ra,1a6c <USBFSH_GetEndpData>
    145c:	8d2a                	mv	s10,a0
    145e:	e131                	bnez	a0,14a2 <USBH_MainDeal+0x45a>
    1460:	002ac683          	lbu	a3,2(s5)
    1464:	4705                	li	a4,1
    1466:	02e69063          	bne	a3,a4,1486 <USBH_MainDeal+0x43e>
    146a:	87b4                	lhu	a3,30(sp)
    146c:	8d418613          	addi	a2,gp,-1836 # 20000294 <Com_Buf>
    1470:	85d2                	mv	a1,s4
    1472:	8562                	mv	a0,s8
    1474:	9f9ff0ef          	jal	ra,e6c <KB_AnalyzeKeyValue>
    1478:	042ac703          	lbu	a4,66(s5)
    147c:	c709                	beqz	a4,1486 <USBH_MainDeal+0x43e>
    147e:	34ac                	lbu	a1,11(s1)
    1480:	8652                	mv	a2,s4
    1482:	8562                	mv	a0,s8
    1484:	3459                	jal	f0a <KB_SetReport>
    1486:	0985                	addi	s3,s3,1
    1488:	0ff9f993          	andi	s3,s3,255
    148c:	008ac703          	lbu	a4,8(s5)
    1490:	f8e9e2e3          	bltu	s3,a4,1414 <USBH_MainDeal+0x3cc>
    1494:	4759                	li	a4,22
    1496:	00ed0963          	beq	s10,a4,14a8 <USBH_MainDeal+0x460>
    149a:	0a05                	addi	s4,s4,1
    149c:	0ffa7a13          	andi	s4,s4,255
    14a0:	b7b9                	j	13ee <USBH_MainDeal+0x3a6>
    14a2:	4759                	li	a4,22
    14a4:	fee511e3          	bne	a0,a4,1486 <USBH_MainDeal+0x43e>
    14a8:	4d59                	li	s10,22
    14aa:	0b05                	addi	s6,s6,1
    14ac:	0ffb7b13          	andi	s6,s6,255
    14b0:	b35d                	j	1256 <USBH_MainDeal+0x20e>

000014b2 <USBFSH_SetSelfSpeed.part.0>:
    14b2:	50000737          	lui	a4,0x50000
    14b6:	231c                	lbu	a5,0(a4)
    14b8:	0bf7f793          	andi	a5,a5,191
    14bc:	a31c                	sb	a5,0(a4)
    14be:	331c                	lbu	a5,1(a4)
    14c0:	0fb7f793          	andi	a5,a5,251
    14c4:	b31c                	sb	a5,1(a4)
    14c6:	3b7e                	lhu	a5,54(a4)
    14c8:	07c2                	slli	a5,a5,0x10
    14ca:	83c1                	srli	a5,a5,0x10
    14cc:	bff7f793          	andi	a5,a5,-1025
    14d0:	07c2                	slli	a5,a5,0x10
    14d2:	83c1                	srli	a5,a5,0x10
    14d4:	bb7e                	sh	a5,54(a4)
    14d6:	8082                	ret

000014d8 <USBFS_RCC_Init>:
    14d8:	c59fe2ef          	jal	t0,130 <__riscv_save_0>
    14dc:	8141a703          	lw	a4,-2028(gp) # 200001d4 <SystemCoreClock>
    14e0:	089547b7          	lui	a5,0x8954
    14e4:	40078793          	addi	a5,a5,1024 # 8954400 <_data_lma+0x894d6d4>
    14e8:	4509                	li	a0,2
    14ea:	02f70063          	beq	a4,a5,150a <USBFS_RCC_Init+0x32>
    14ee:	05b8e7b7          	lui	a5,0x5b8e
    14f2:	80078793          	addi	a5,a5,-2048 # 5b8d800 <_data_lma+0x5b86ad4>
    14f6:	4505                	li	a0,1
    14f8:	00f70963          	beq	a4,a5,150a <USBFS_RCC_Init+0x32>
    14fc:	02dc77b7          	lui	a5,0x2dc7
    1500:	c0078793          	addi	a5,a5,-1024 # 2dc6c00 <_data_lma+0x2dbfed4>
    1504:	00f71563          	bne	a4,a5,150e <USBFS_RCC_Init+0x36>
    1508:	4501                	li	a0,0
    150a:	658020ef          	jal	ra,3b62 <RCC_USBCLKConfig>
    150e:	4585                	li	a1,1
    1510:	6505                	lui	a0,0x1
    1512:	728020ef          	jal	ra,3c3a <RCC_AHBPeriphClockCmd>
    1516:	c3ffe06f          	j	154 <__riscv_restore_0>

0000151a <USBFS_Host_Init>:
    151a:	4785                	li	a5,1
    151c:	04f51063          	bne	a0,a5,155c <USBFS_Host_Init+0x42>
    1520:	500007b7          	lui	a5,0x50000
    1524:	f8000713          	li	a4,-128
    1528:	a398                	sb	a4,0(a5)
    152a:	000780a3          	sb	zero,1(a5) # 50000001 <_eusrstack+0x2fffb001>
    152e:	000781a3          	sb	zero,3(a5)
    1532:	04800713          	li	a4,72
    1536:	b7d8                	sb	a4,13(a5)
    1538:	63c18713          	addi	a4,gp,1596 # 20000ffc <USBFS_RX_Buf>
    153c:	cf98                	sw	a4,24(a5)
    153e:	67c18713          	addi	a4,gp,1660 # 2000103c <USBFS_TX_Buf>
    1542:	cfd8                	sw	a4,28(a5)
    1544:	02078da3          	sb	zero,59(a5)
    1548:	02078f23          	sb	zero,62(a5)
    154c:	f8900713          	li	a4,-119
    1550:	a398                	sb	a4,0(a5)
    1552:	577d                	li	a4,-1
    1554:	a3f8                	sb	a4,6(a5)
    1556:	470d                	li	a4,3
    1558:	a3b8                	sb	a4,2(a5)
    155a:	8082                	ret
    155c:	500007b7          	lui	a5,0x50000
    1560:	4719                	li	a4,6
    1562:	a398                	sb	a4,0(a5)
    1564:	8082                	ret

00001566 <USBFSH_CheckRootHubPortStatus>:
    1566:	50000737          	lui	a4,0x50000
    156a:	237c                	lbu	a5,6(a4)
    156c:	8b85                	andi	a5,a5,1
    156e:	c385                	beqz	a5,158e <USBFSH_CheckRootHubPortStatus+0x28>
    1570:	4785                	li	a5,1
    1572:	a37c                	sb	a5,6(a4)
    1574:	3354                	lbu	a3,5(a4)
    1576:	4781                	li	a5,0
    1578:	8a85                	andi	a3,a3,1
    157a:	ca99                	beqz	a3,1590 <USBFSH_CheckRootHubPortStatus+0x2a>
    157c:	4785                	li	a5,1
    157e:	c909                	beqz	a0,1590 <USBFSH_CheckRootHubPortStatus+0x2a>
    1580:	4789                	li	a5,2
    1582:	00f50663          	beq	a0,a5,158e <USBFSH_CheckRootHubPortStatus+0x28>
    1586:	3318                	lbu	a4,1(a4)
    1588:	4785                	li	a5,1
    158a:	8b05                	andi	a4,a4,1
    158c:	c311                	beqz	a4,1590 <USBFSH_CheckRootHubPortStatus+0x2a>
    158e:	4789                	li	a5,2
    1590:	853e                	mv	a0,a5
    1592:	8082                	ret

00001594 <USBFSH_CheckRootHubPortSpeed>:
    1594:	500007b7          	lui	a5,0x50000
    1598:	33c8                	lbu	a0,5(a5)
    159a:	8105                	srli	a0,a0,0x1
    159c:	00154513          	xori	a0,a0,1
    15a0:	8905                	andi	a0,a0,1
    15a2:	8082                	ret

000015a4 <USBFSH_SetSelfAddr>:
    15a4:	50000737          	lui	a4,0x50000
    15a8:	333c                	lbu	a5,3(a4)
    15aa:	07f57513          	andi	a0,a0,127
    15ae:	0807f793          	andi	a5,a5,128
    15b2:	8fc9                	or	a5,a5,a0
    15b4:	b33c                	sb	a5,3(a4)
    15b6:	8082                	ret

000015b8 <USBFSH_SetSelfSpeed>:
    15b8:	4785                	li	a5,1
    15ba:	00f51763          	bne	a0,a5,15c8 <USBFSH_SetSelfSpeed+0x10>
    15be:	b73fe2ef          	jal	t0,130 <__riscv_save_0>
    15c2:	3dc5                	jal	14b2 <USBFSH_SetSelfSpeed.part.0>
    15c4:	b91fe06f          	j	154 <__riscv_restore_0>
    15c8:	500007b7          	lui	a5,0x50000
    15cc:	2398                	lbu	a4,0(a5)
    15ce:	04076713          	ori	a4,a4,64
    15d2:	a398                	sb	a4,0(a5)
    15d4:	3398                	lbu	a4,1(a5)
    15d6:	00476713          	ori	a4,a4,4
    15da:	b398                	sb	a4,1(a5)
    15dc:	3bfa                	lhu	a4,54(a5)
    15de:	40076713          	ori	a4,a4,1024
    15e2:	bbfa                	sh	a4,54(a5)
    15e4:	8082                	ret

000015e6 <USBFSH_ResetRootHubPort>:
    15e6:	b4bfe2ef          	jal	t0,130 <__riscv_save_0>
    15ea:	842a                	mv	s0,a0
    15ec:	4501                	li	a0,0
    15ee:	3f5d                	jal	15a4 <USBFSH_SetSelfAddr>
    15f0:	35c9                	jal	14b2 <USBFSH_SetSelfSpeed.part.0>
    15f2:	4785                	li	a5,1
    15f4:	0087ec63          	bltu	a5,s0,160c <USBFSH_ResetRootHubPort+0x26>
    15f8:	50000737          	lui	a4,0x50000
    15fc:	331c                	lbu	a5,1(a4)
    15fe:	0027e793          	ori	a5,a5,2
    1602:	b31c                	sb	a5,1(a4)
    1604:	e811                	bnez	s0,1618 <USBFSH_ResetRootHubPort+0x32>
    1606:	452d                	li	a0,11
    1608:	059020ef          	jal	ra,3e60 <Delay_Ms>
    160c:	50000737          	lui	a4,0x50000
    1610:	331c                	lbu	a5,1(a4)
    1612:	0fd7f793          	andi	a5,a5,253
    1616:	b31c                	sb	a5,1(a4)
    1618:	4509                	li	a0,2
    161a:	047020ef          	jal	ra,3e60 <Delay_Ms>
    161e:	500007b7          	lui	a5,0x50000
    1622:	23f8                	lbu	a4,6(a5)
    1624:	8b05                	andi	a4,a4,1
    1626:	c711                	beqz	a4,1632 <USBFSH_ResetRootHubPort+0x4c>
    1628:	33d8                	lbu	a4,5(a5)
    162a:	8b05                	andi	a4,a4,1
    162c:	c319                	beqz	a4,1632 <USBFSH_ResetRootHubPort+0x4c>
    162e:	4705                	li	a4,1
    1630:	a3f8                	sb	a4,6(a5)
    1632:	b23fe06f          	j	154 <__riscv_restore_0>

00001636 <USBFSH_EnableRootHubPort>:
    1636:	50000737          	lui	a4,0x50000
    163a:	335c                	lbu	a5,5(a4)
    163c:	8b85                	andi	a5,a5,1
    163e:	cb85                	beqz	a5,166e <USBFSH_EnableRootHubPort+0x38>
    1640:	af1fe2ef          	jal	t0,130 <__riscv_save_0>
    1644:	331c                	lbu	a5,1(a4)
    1646:	8b85                	andi	a5,a5,1
    1648:	e791                	bnez	a5,1654 <USBFSH_EnableRootHubPort+0x1e>
    164a:	842a                	mv	s0,a0
    164c:	37a1                	jal	1594 <USBFSH_CheckRootHubPortSpeed>
    164e:	a008                	sb	a0,0(s0)
    1650:	e111                	bnez	a0,1654 <USBFSH_EnableRootHubPort+0x1e>
    1652:	379d                	jal	15b8 <USBFSH_SetSelfSpeed>
    1654:	500007b7          	lui	a5,0x50000
    1658:	3398                	lbu	a4,1(a5)
    165a:	4501                	li	a0,0
    165c:	00176713          	ori	a4,a4,1
    1660:	b398                	sb	a4,1(a5)
    1662:	3bfa                	lhu	a4,54(a5)
    1664:	00476713          	ori	a4,a4,4
    1668:	bbfa                	sh	a4,54(a5)
    166a:	aebfe06f          	j	154 <__riscv_restore_0>
    166e:	4559                	li	a0,22
    1670:	8082                	ret

00001672 <USBFSH_Transact>:
    1672:	a97fe2ef          	jal	t0,108 <__riscv_save_10>
    1676:	500007b7          	lui	a5,0x50000
    167a:	02b78da3          	sb	a1,59(a5) # 5000003b <_eusrstack+0x2fffb03b>
    167e:	6a41                	lui	s4,0x10
    1680:	8b2a                	mv	s6,a0
    1682:	8932                	mv	s2,a2
    1684:	02b78f23          	sb	a1,62(a5)
    1688:	00455993          	srli	s3,a0,0x4
    168c:	4481                	li	s1,0
    168e:	50000437          	lui	s0,0x50000
    1692:	4b89                	li	s7,2
    1694:	4c39                	li	s8,14
    1696:	4aa9                	li	s5,10
    1698:	4ca5                	li	s9,9
    169a:	1a7d                	addi	s4,s4,-1
    169c:	03640c23          	sb	s6,56(s0) # 50000038 <_eusrstack+0x2fffb038>
    16a0:	01740323          	sb	s7,6(s0)
    16a4:	3e800d13          	li	s10,1000
    16a8:	207c                	lbu	a5,6(s0)
    16aa:	8b89                	andi	a5,a5,2
    16ac:	eb91                	bnez	a5,16c0 <USBFSH_Transact+0x4e>
    16ae:	1d7d                	addi	s10,s10,-1
    16b0:	0d42                	slli	s10,s10,0x10
    16b2:	4505                	li	a0,1
    16b4:	010d5d13          	srli	s10,s10,0x10
    16b8:	772020ef          	jal	ra,3e2a <Delay_Us>
    16bc:	fe0d16e3          	bnez	s10,16a8 <USBFSH_Transact+0x36>
    16c0:	02040c23          	sb	zero,56(s0)
    16c4:	207c                	lbu	a5,6(s0)
    16c6:	8b89                	andi	a5,a5,2
    16c8:	e781                	bnez	a5,16d0 <USBFSH_Transact+0x5e>
    16ca:	0fe00513          	li	a0,254
    16ce:	a89d                	j	1744 <USBFSH_Transact+0xd2>
    16d0:	307c                	lbu	a5,7(s0)
    16d2:	0407f793          	andi	a5,a5,64
    16d6:	efb5                	bnez	a5,1752 <USBFSH_Transact+0xe0>
    16d8:	307c                	lbu	a5,7(s0)
    16da:	0ff7f793          	andi	a5,a5,255
    16de:	00f7f513          	andi	a0,a5,15
    16e2:	07850a63          	beq	a0,s8,1756 <USBFSH_Transact+0xe4>
    16e6:	05551463          	bne	a0,s5,172e <USBFSH_Transact+0xbc>
    16ea:	06090963          	beqz	s2,175c <USBFSH_Transact+0xea>
    16ee:	01490663          	beq	s2,s4,16fa <USBFSH_Transact+0x88>
    16f2:	197d                	addi	s2,s2,-1
    16f4:	0942                	slli	s2,s2,0x10
    16f6:	01095913          	srli	s2,s2,0x10
    16fa:	14fd                	addi	s1,s1,-1
    16fc:	0ff4f493          	andi	s1,s1,255
    1700:	4551                	li	a0,20
    1702:	728020ef          	jal	ra,3e2a <Delay_Us>
    1706:	207c                	lbu	a5,6(s0)
    1708:	8b85                	andi	a5,a5,1
    170a:	cb91                	beqz	a5,171e <USBFSH_Transact+0xac>
    170c:	0c800513          	li	a0,200
    1710:	71a020ef          	jal	ra,3e2a <Delay_Us>
    1714:	301c                	lbu	a5,1(s0)
    1716:	8b85                	andi	a5,a5,1
    1718:	c7a9                	beqz	a5,1762 <USBFSH_Transact+0xf0>
    171a:	4785                	li	a5,1
    171c:	a07c                	sb	a5,6(s0)
    171e:	0485                	addi	s1,s1,1
    1720:	0ff4f493          	andi	s1,s1,255
    1724:	f7549ce3          	bne	s1,s5,169c <USBFSH_Transact+0x2a>
    1728:	02000513          	li	a0,32
    172c:	a821                	j	1744 <USBFSH_Transact+0xd2>
    172e:	01998d63          	beq	s3,s9,1748 <USBFSH_Transact+0xd6>
    1732:	47b5                	li	a5,13
    1734:	00f98563          	beq	s3,a5,173e <USBFSH_Transact+0xcc>
    1738:	4785                	li	a5,1
    173a:	f8f998e3          	bne	s3,a5,16ca <USBFSH_Transact+0x58>
    173e:	d169                	beqz	a0,1700 <USBFSH_Transact+0x8e>
    1740:	02056513          	ori	a0,a0,32
    1744:	9fdfe06f          	j	140 <__riscv_restore_10>
    1748:	8b9d                	andi	a5,a5,7
    174a:	470d                	li	a4,3
    174c:	fee799e3          	bne	a5,a4,173e <USBFSH_Transact+0xcc>
    1750:	bf45                	j	1700 <USBFSH_Transact+0x8e>
    1752:	4501                	li	a0,0
    1754:	bfc5                	j	1744 <USBFSH_Transact+0xd2>
    1756:	02e00513          	li	a0,46
    175a:	b7ed                	j	1744 <USBFSH_Transact+0xd2>
    175c:	02a00513          	li	a0,42
    1760:	b7d5                	j	1744 <USBFSH_Transact+0xd2>
    1762:	4559                	li	a0,22
    1764:	b7c5                	j	1744 <USBFSH_Transact+0xd2>

00001766 <USBFSH_CtrlTransfer>:
    1766:	9a3fe2ef          	jal	t0,108 <__riscv_save_10>
    176a:	89aa                	mv	s3,a0
    176c:	84b2                	mv	s1,a2
    176e:	06400513          	li	a0,100
    1772:	892e                	mv	s2,a1
    1774:	6b6020ef          	jal	ra,3e2a <Delay_Us>
    1778:	c099                	beqz	s1,177e <USBFSH_CtrlTransfer+0x18>
    177a:	00049023          	sh	zero,0(s1)
    177e:	50000437          	lui	s0,0x50000
    1782:	47a1                	li	a5,8
    1784:	6a89                	lui	s5,0x2
    1786:	bc5e                	sh	a5,60(s0)
    1788:	710a8613          	addi	a2,s5,1808 # 2710 <Disp+0x1a4>
    178c:	4581                	li	a1,0
    178e:	0d000513          	li	a0,208
    1792:	35c5                	jal	1672 <USBFSH_Transact>
    1794:	14051063          	bnez	a0,18d4 <USBFSH_CtrlTransfer+0x16e>
    1798:	4791                	li	a5,4
    179a:	02f40da3          	sb	a5,59(s0) # 5000003b <_eusrstack+0x2fffb03b>
    179e:	02f40f23          	sb	a5,62(s0)
    17a2:	67c18793          	addi	a5,gp,1660 # 2000103c <USBFS_TX_Buf>
    17a6:	23e2                	lhu	s0,6(a5)
    17a8:	67c18b13          	addi	s6,gp,1660 # 2000103c <USBFS_TX_Buf>
    17ac:	0e040663          	beqz	s0,1898 <USBFSH_CtrlTransfer+0x132>
    17b0:	0e090463          	beqz	s2,1898 <USBFSH_CtrlTransfer+0x132>
    17b4:	00078783          	lb	a5,0(a5)
    17b8:	0607c263          	bltz	a5,181c <USBFSH_CtrlTransfer+0xb6>
    17bc:	8bce                	mv	s7,s3
    17be:	09c2                	slli	s3,s3,0x10
    17c0:	0109d993          	srli	s3,s3,0x10
    17c4:	50000a37          	lui	s4,0x50000
    17c8:	710a8a93          	addi	s5,s5,1808
    17cc:	06400513          	li	a0,100
    17d0:	65a020ef          	jal	ra,3e2a <Delay_Us>
    17d4:	87de                	mv	a5,s7
    17d6:	01347363          	bgeu	s0,s3,17dc <USBFSH_CtrlTransfer+0x76>
    17da:	87a2                	mv	a5,s0
    17dc:	02fa1e23          	sh	a5,60(s4) # 5000003c <_eusrstack+0x2fffb03c>
    17e0:	4781                	li	a5,0
    17e2:	03ca5703          	lhu	a4,60(s4)
    17e6:	10e79163          	bne	a5,a4,18e8 <USBFSH_CtrlTransfer+0x182>
    17ea:	03ea4583          	lbu	a1,62(s4)
    17ee:	8656                	mv	a2,s5
    17f0:	4541                	li	a0,16
    17f2:	3541                	jal	1672 <USBFSH_Transact>
    17f4:	e165                	bnez	a0,18d4 <USBFSH_CtrlTransfer+0x16e>
    17f6:	03ea4783          	lbu	a5,62(s4)
    17fa:	0047c793          	xori	a5,a5,4
    17fe:	02fa0f23          	sb	a5,62(s4)
    1802:	03ca5783          	lhu	a5,60(s4)
    1806:	8c1d                	sub	s0,s0,a5
    1808:	0442                	slli	s0,s0,0x10
    180a:	8041                	srli	s0,s0,0x10
    180c:	c491                	beqz	s1,1818 <USBFSH_CtrlTransfer+0xb2>
    180e:	03ca5783          	lhu	a5,60(s4)
    1812:	209a                	lhu	a4,0(s1)
    1814:	97ba                	add	a5,a5,a4
    1816:	a09e                	sh	a5,0(s1)
    1818:	f855                	bnez	s0,17cc <USBFSH_CtrlTransfer+0x66>
    181a:	a8bd                	j	1898 <USBFSH_CtrlTransfer+0x132>
    181c:	50000a37          	lui	s4,0x50000
    1820:	710a8a93          	addi	s5,s5,1808
    1824:	63c18b13          	addi	s6,gp,1596 # 20000ffc <USBFS_RX_Buf>
    1828:	19fd                	addi	s3,s3,-1
    182a:	06400513          	li	a0,100
    182e:	5fc020ef          	jal	ra,3e2a <Delay_Us>
    1832:	03ba4583          	lbu	a1,59(s4) # 5000003b <_eusrstack+0x2fffb03b>
    1836:	8656                	mv	a2,s5
    1838:	09000513          	li	a0,144
    183c:	3d1d                	jal	1672 <USBFSH_Transact>
    183e:	e959                	bnez	a0,18d4 <USBFSH_CtrlTransfer+0x16e>
    1840:	03ba4783          	lbu	a5,59(s4)
    1844:	0047c793          	xori	a5,a5,4
    1848:	02fa0da3          	sb	a5,59(s4)
    184c:	008a5703          	lhu	a4,8(s4)
    1850:	87a2                	mv	a5,s0
    1852:	00877663          	bgeu	a4,s0,185e <USBFSH_CtrlTransfer+0xf8>
    1856:	008a5783          	lhu	a5,8(s4)
    185a:	07c2                	slli	a5,a5,0x10
    185c:	83c1                	srli	a5,a5,0x10
    185e:	8c1d                	sub	s0,s0,a5
    1860:	0442                	slli	s0,s0,0x10
    1862:	8041                	srli	s0,s0,0x10
    1864:	c481                	beqz	s1,186c <USBFSH_CtrlTransfer+0x106>
    1866:	209a                	lhu	a4,0(s1)
    1868:	973e                	add	a4,a4,a5
    186a:	a09a                	sh	a4,0(s1)
    186c:	4701                	li	a4,0
    186e:	01071693          	slli	a3,a4,0x10
    1872:	82c1                	srli	a3,a3,0x10
    1874:	06d79263          	bne	a5,a3,18d8 <USBFSH_CtrlTransfer+0x172>
    1878:	993e                	add	s2,s2,a5
    187a:	008a5783          	lhu	a5,8(s4)
    187e:	07c2                	slli	a5,a5,0x10
    1880:	83c1                	srli	a5,a5,0x10
    1882:	c799                	beqz	a5,1890 <USBFSH_CtrlTransfer+0x12a>
    1884:	008a5783          	lhu	a5,8(s4)
    1888:	00f9f7b3          	and	a5,s3,a5
    188c:	e391                	bnez	a5,1890 <USBFSH_CtrlTransfer+0x12a>
    188e:	fc51                	bnez	s0,182a <USBFSH_CtrlTransfer+0xc4>
    1890:	500007b7          	lui	a5,0x50000
    1894:	02079e23          	sh	zero,60(a5) # 5000003c <_eusrstack+0x2fffb03c>
    1898:	06400513          	li	a0,100
    189c:	58e020ef          	jal	ra,3e2a <Delay_Us>
    18a0:	500007b7          	lui	a5,0x50000
    18a4:	3fde                	lhu	a5,60(a5)
    18a6:	09000513          	li	a0,144
    18aa:	07c2                	slli	a5,a5,0x10
    18ac:	83c1                	srli	a5,a5,0x10
    18ae:	e391                	bnez	a5,18b2 <USBFSH_CtrlTransfer+0x14c>
    18b0:	4541                	li	a0,16
    18b2:	6609                	lui	a2,0x2
    18b4:	71060613          	addi	a2,a2,1808 # 2710 <Disp+0x1a4>
    18b8:	4591                	li	a1,4
    18ba:	3b65                	jal	1672 <USBFSH_Transact>
    18bc:	ed01                	bnez	a0,18d4 <USBFSH_CtrlTransfer+0x16e>
    18be:	50000737          	lui	a4,0x50000
    18c2:	3f5e                	lhu	a5,60(a4)
    18c4:	07c2                	slli	a5,a5,0x10
    18c6:	83c1                	srli	a5,a5,0x10
    18c8:	c791                	beqz	a5,18d4 <USBFSH_CtrlTransfer+0x16e>
    18ca:	271e                	lhu	a5,8(a4)
    18cc:	07c2                	slli	a5,a5,0x10
    18ce:	83c1                	srli	a5,a5,0x10
    18d0:	c391                	beqz	a5,18d4 <USBFSH_CtrlTransfer+0x16e>
    18d2:	455d                	li	a0,23
    18d4:	86dfe06f          	j	140 <__riscv_restore_10>
    18d8:	00eb06b3          	add	a3,s6,a4
    18dc:	2290                	lbu	a2,0(a3)
    18de:	00e906b3          	add	a3,s2,a4
    18e2:	0705                	addi	a4,a4,1
    18e4:	a290                	sb	a2,0(a3)
    18e6:	b761                	j	186e <USBFSH_CtrlTransfer+0x108>
    18e8:	00094683          	lbu	a3,0(s2)
    18ec:	00fb0733          	add	a4,s6,a5
    18f0:	0785                	addi	a5,a5,1
    18f2:	07c2                	slli	a5,a5,0x10
    18f4:	a314                	sb	a3,0(a4)
    18f6:	0905                	addi	s2,s2,1
    18f8:	83c1                	srli	a5,a5,0x10
    18fa:	b5e5                	j	17e2 <USBFSH_CtrlTransfer+0x7c>

000018fc <USBFSH_GetDeviceDescr>:
    18fc:	835fe2ef          	jal	t0,130 <__riscv_save_0>
    1900:	83418413          	addi	s0,gp,-1996 # 200001f4 <SetupGetDevDesc>
    1904:	47a1                	li	a5,8
    1906:	4018                	lw	a4,0(s0)
    1908:	a11c                	sb	a5,0(a0)
    190a:	67c18793          	addi	a5,gp,1660 # 2000103c <USBFS_TX_Buf>
    190e:	c398                	sw	a4,0(a5)
    1910:	4058                	lw	a4,4(s0)
    1912:	84aa                	mv	s1,a0
    1914:	1141                	addi	sp,sp,-16
    1916:	c3d8                	sw	a4,4(a5)
    1918:	2108                	lbu	a0,0(a0)
    191a:	00e10613          	addi	a2,sp,14
    191e:	892e                	mv	s2,a1
    1920:	3599                	jal	1766 <USBFSH_CtrlTransfer>
    1922:	e909                	bnez	a0,1934 <USBFSH_GetDeviceDescr+0x38>
    1924:	00794783          	lbu	a5,7(s2)
    1928:	207a                	lhu	a4,6(s0)
    192a:	a09c                	sb	a5,0(s1)
    192c:	873c                	lhu	a5,14(sp)
    192e:	00e7f363          	bgeu	a5,a4,1934 <USBFSH_GetDeviceDescr+0x38>
    1932:	455d                	li	a0,23
    1934:	0141                	addi	sp,sp,16
    1936:	81ffe06f          	j	154 <__riscv_restore_0>

0000193a <USBFSH_GetConfigDescr>:
    193a:	fdcfe2ef          	jal	t0,116 <__riscv_save_4>
    193e:	82c18713          	addi	a4,gp,-2004 # 200001ec <SetupGetCfgDesc>
    1942:	89b2                	mv	s3,a2
    1944:	4310                	lw	a2,0(a4)
    1946:	4358                	lw	a4,4(a4)
    1948:	67c18793          	addi	a5,gp,1660 # 2000103c <USBFS_TX_Buf>
    194c:	1141                	addi	sp,sp,-16
    194e:	c390                	sw	a2,0(a5)
    1950:	c3d8                	sw	a4,4(a5)
    1952:	8636                	mv	a2,a3
    1954:	8a2a                	mv	s4,a0
    1956:	892e                	mv	s2,a1
    1958:	c636                	sw	a3,12(sp)
    195a:	3531                	jal	1766 <USBFSH_CtrlTransfer>
    195c:	e121                	bnez	a0,199c <USBFSH_GetConfigDescr+0x62>
    195e:	46b2                	lw	a3,12(sp)
    1960:	82c18713          	addi	a4,gp,-2004 # 200001ec <SetupGetCfgDesc>
    1964:	2372                	lhu	a2,6(a4)
    1966:	228e                	lhu	a1,0(a3)
    1968:	455d                	li	a0,23
    196a:	02c5e963          	bltu	a1,a2,199c <USBFSH_GetConfigDescr+0x62>
    196e:	00394603          	lbu	a2,3(s2)
    1972:	00294583          	lbu	a1,2(s2)
    1976:	67c18793          	addi	a5,gp,1660 # 2000103c <USBFS_TX_Buf>
    197a:	0622                	slli	a2,a2,0x8
    197c:	8e4d                	or	a2,a2,a1
    197e:	85b2                	mv	a1,a2
    1980:	00c9f363          	bgeu	s3,a2,1986 <USBFSH_GetConfigDescr+0x4c>
    1984:	85ce                	mv	a1,s3
    1986:	4310                	lw	a2,0(a4)
    1988:	4358                	lw	a4,4(a4)
    198a:	a28e                	sh	a1,0(a3)
    198c:	c390                	sw	a2,0(a5)
    198e:	c3d8                	sw	a4,4(a5)
    1990:	229a                	lhu	a4,0(a3)
    1992:	8636                	mv	a2,a3
    1994:	85ca                	mv	a1,s2
    1996:	a3fa                	sh	a4,6(a5)
    1998:	8552                	mv	a0,s4
    199a:	33f1                	jal	1766 <USBFSH_CtrlTransfer>
    199c:	0141                	addi	sp,sp,16
    199e:	facfe06f          	j	14a <__riscv_restore_4>

000019a2 <USBFSH_GetStrDescr>:
    19a2:	f74fe2ef          	jal	t0,116 <__riscv_save_4>
    19a6:	83c18793          	addi	a5,gp,-1988 # 200001fc <SetupGetStrDesc>
    19aa:	0007aa03          	lw	s4,0(a5) # 50000000 <_eusrstack+0x2fffb000>
    19ae:	0047a983          	lw	s3,4(a5)
    19b2:	67c18413          	addi	s0,gp,1660 # 2000103c <USBFS_TX_Buf>
    19b6:	1141                	addi	sp,sp,-16
    19b8:	84b2                	mv	s1,a2
    19ba:	3005e913          	ori	s2,a1,768
    19be:	01442023          	sw	s4,0(s0)
    19c2:	00e10613          	addi	a2,sp,14
    19c6:	85a6                	mv	a1,s1
    19c8:	8aaa                	mv	s5,a0
    19ca:	01342223          	sw	s3,4(s0)
    19ce:	01241123          	sh	s2,2(s0)
    19d2:	3b51                	jal	1766 <USBFSH_CtrlTransfer>
    19d4:	ed19                	bnez	a0,19f2 <USBFSH_GetStrDescr+0x50>
    19d6:	209c                	lbu	a5,0(s1)
    19d8:	00e10613          	addi	a2,sp,14
    19dc:	01442023          	sw	s4,0(s0)
    19e0:	01342223          	sw	s3,4(s0)
    19e4:	85a6                	mv	a1,s1
    19e6:	8556                	mv	a0,s5
    19e8:	877c                	sh	a5,14(sp)
    19ea:	01241123          	sh	s2,2(s0)
    19ee:	a07e                	sh	a5,6(s0)
    19f0:	3b9d                	jal	1766 <USBFSH_CtrlTransfer>
    19f2:	0141                	addi	sp,sp,16
    19f4:	f56fe06f          	j	14a <__riscv_restore_4>

000019f8 <USBFSH_SetUsbAddress>:
    19f8:	f38fe2ef          	jal	t0,130 <__riscv_save_0>
    19fc:	84418713          	addi	a4,gp,-1980 # 20000204 <SetupSetAddr>
    1a00:	4314                	lw	a3,0(a4)
    1a02:	4358                	lw	a4,4(a4)
    1a04:	67c18793          	addi	a5,gp,1660 # 2000103c <USBFS_TX_Buf>
    1a08:	c394                	sw	a3,0(a5)
    1a0a:	a3ae                	sh	a1,2(a5)
    1a0c:	84ae                	mv	s1,a1
    1a0e:	c3d8                	sw	a4,4(a5)
    1a10:	4601                	li	a2,0
    1a12:	4581                	li	a1,0
    1a14:	3b89                	jal	1766 <USBFSH_CtrlTransfer>
    1a16:	842a                	mv	s0,a0
    1a18:	e519                	bnez	a0,1a26 <USBFSH_SetUsbAddress+0x2e>
    1a1a:	8526                	mv	a0,s1
    1a1c:	b89ff0ef          	jal	ra,15a4 <USBFSH_SetSelfAddr>
    1a20:	4515                	li	a0,5
    1a22:	43e020ef          	jal	ra,3e60 <Delay_Ms>
    1a26:	8522                	mv	a0,s0
    1a28:	f2cfe06f          	j	154 <__riscv_restore_0>

00001a2c <USBFSH_SetUsbConfig>:
    1a2c:	f04fe2ef          	jal	t0,130 <__riscv_save_0>
    1a30:	84c18713          	addi	a4,gp,-1972 # 2000020c <SetupSetConfig>
    1a34:	4314                	lw	a3,0(a4)
    1a36:	4358                	lw	a4,4(a4)
    1a38:	67c18793          	addi	a5,gp,1660 # 2000103c <USBFS_TX_Buf>
    1a3c:	c394                	sw	a3,0(a5)
    1a3e:	a3ae                	sh	a1,2(a5)
    1a40:	c3d8                	sw	a4,4(a5)
    1a42:	4601                	li	a2,0
    1a44:	4581                	li	a1,0
    1a46:	3305                	jal	1766 <USBFSH_CtrlTransfer>
    1a48:	f0cfe06f          	j	154 <__riscv_restore_0>

00001a4c <USBFSH_ClearEndpStall>:
    1a4c:	ee4fe2ef          	jal	t0,130 <__riscv_save_0>
    1a50:	82418713          	addi	a4,gp,-2012 # 200001e4 <SetupClearEndpStall>
    1a54:	4314                	lw	a3,0(a4)
    1a56:	4358                	lw	a4,4(a4)
    1a58:	67c18793          	addi	a5,gp,1660 # 2000103c <USBFS_TX_Buf>
    1a5c:	c3d8                	sw	a4,4(a5)
    1a5e:	a3ce                	sh	a1,4(a5)
    1a60:	c394                	sw	a3,0(a5)
    1a62:	4601                	li	a2,0
    1a64:	4581                	li	a1,0
    1a66:	3301                	jal	1766 <USBFSH_CtrlTransfer>
    1a68:	eecfe06f          	j	154 <__riscv_restore_0>

00001a6c <USBFSH_GetEndpData>:
    1a6c:	ec4fe2ef          	jal	t0,130 <__riscv_save_0>
    1a70:	842e                	mv	s0,a1
    1a72:	218c                	lbu	a1,0(a1)
    1a74:	1141                	addi	sp,sp,-16
    1a76:	8932                	mv	s2,a2
    1a78:	09056513          	ori	a0,a0,144
    1a7c:	4601                	li	a2,0
    1a7e:	c636                	sw	a3,12(sp)
    1a80:	bf3ff0ef          	jal	ra,1672 <USBFSH_Transact>
    1a84:	84aa                	mv	s1,a0
    1a86:	46b2                	lw	a3,12(sp)
    1a88:	e105                	bnez	a0,1aa8 <USBFSH_GetEndpData+0x3c>
    1a8a:	500007b7          	lui	a5,0x50000
    1a8e:	2792                	lhu	a2,8(a5)
    1a90:	63c18593          	addi	a1,gp,1596 # 20000ffc <USBFS_RX_Buf>
    1a94:	0642                	slli	a2,a2,0x10
    1a96:	8241                	srli	a2,a2,0x10
    1a98:	a292                	sh	a2,0(a3)
    1a9a:	854a                	mv	a0,s2
    1a9c:	4d4020ef          	jal	ra,3f70 <memcpy>
    1aa0:	201c                	lbu	a5,0(s0)
    1aa2:	0047c793          	xori	a5,a5,4
    1aa6:	a01c                	sb	a5,0(s0)
    1aa8:	8526                	mv	a0,s1
    1aaa:	0141                	addi	sp,sp,16
    1aac:	ea8fe06f          	j	154 <__riscv_restore_0>

00001ab0 <USBFSH_SendEndpData>:
    1ab0:	e80fe2ef          	jal	t0,130 <__riscv_save_0>
    1ab4:	84aa                	mv	s1,a0
    1ab6:	1141                	addi	sp,sp,-16
    1ab8:	842e                	mv	s0,a1
    1aba:	67c18513          	addi	a0,gp,1660 # 2000103c <USBFS_TX_Buf>
    1abe:	85b2                	mv	a1,a2
    1ac0:	8636                	mv	a2,a3
    1ac2:	c636                	sw	a3,12(sp)
    1ac4:	4ac020ef          	jal	ra,3f70 <memcpy>
    1ac8:	46b2                	lw	a3,12(sp)
    1aca:	500007b7          	lui	a5,0x50000
    1ace:	4601                	li	a2,0
    1ad0:	bfd6                	sh	a3,60(a5)
    1ad2:	200c                	lbu	a1,0(s0)
    1ad4:	0104e513          	ori	a0,s1,16
    1ad8:	b9bff0ef          	jal	ra,1672 <USBFSH_Transact>
    1adc:	e509                	bnez	a0,1ae6 <USBFSH_SendEndpData+0x36>
    1ade:	201c                	lbu	a5,0(s0)
    1ae0:	0047c793          	xori	a5,a5,4
    1ae4:	a01c                	sb	a5,0(s0)
    1ae6:	0141                	addi	sp,sp,16
    1ae8:	e6cfe06f          	j	154 <__riscv_restore_0>

00001aec <HID_GetHidDesr>:
    1aec:	e44fe2ef          	jal	t0,130 <__riscv_save_0>
    1af0:	85418713          	addi	a4,gp,-1964 # 20000214 <SetupGetHidDes>
    1af4:	8832                	mv	a6,a2
    1af6:	4310                	lw	a2,0(a4)
    1af8:	4358                	lw	a4,4(a4)
    1afa:	66c1ae23          	sw	a2,1660(gp) # 2000103c <USBFS_TX_Buf>
    1afe:	67c18793          	addi	a5,gp,1660 # 2000103c <USBFS_TX_Buf>
    1b02:	c3d8                	sw	a4,4(a5)
    1b04:	a3ce                	sh	a1,4(a5)
    1b06:	229a                	lhu	a4,0(a3)
    1b08:	8636                	mv	a2,a3
    1b0a:	85c2                	mv	a1,a6
    1b0c:	a3fa                	sh	a4,6(a5)
    1b0e:	c59ff0ef          	jal	ra,1766 <USBFSH_CtrlTransfer>
    1b12:	e42fe06f          	j	154 <__riscv_restore_0>

00001b16 <HID_SetReport>:
    1b16:	e1afe2ef          	jal	t0,130 <__riscv_save_0>
    1b1a:	85c18713          	addi	a4,gp,-1956 # 2000021c <SetupSetReport>
    1b1e:	8832                	mv	a6,a2
    1b20:	4310                	lw	a2,0(a4)
    1b22:	4358                	lw	a4,4(a4)
    1b24:	66c1ae23          	sw	a2,1660(gp) # 2000103c <USBFS_TX_Buf>
    1b28:	67c18793          	addi	a5,gp,1660 # 2000103c <USBFS_TX_Buf>
    1b2c:	c3d8                	sw	a4,4(a5)
    1b2e:	a3ce                	sh	a1,4(a5)
    1b30:	8636                	mv	a2,a3
    1b32:	85c2                	mv	a1,a6
    1b34:	c33ff0ef          	jal	ra,1766 <USBFSH_CtrlTransfer>
    1b38:	e1cfe06f          	j	154 <__riscv_restore_0>

00001b3c <HID_SetIdle>:
    1b3c:	df4fe2ef          	jal	t0,130 <__riscv_save_0>
    1b40:	86418713          	addi	a4,gp,-1948 # 20000224 <SetupSetidle>
    1b44:	00072803          	lw	a6,0(a4) # 50000000 <_eusrstack+0x2fffb000>
    1b48:	4358                	lw	a4,4(a4)
    1b4a:	6701ae23          	sw	a6,1660(gp) # 2000103c <USBFS_TX_Buf>
    1b4e:	0622                	slli	a2,a2,0x8
    1b50:	67c18793          	addi	a5,gp,1660 # 2000103c <USBFS_TX_Buf>
    1b54:	8ed1                	or	a3,a3,a2
    1b56:	c3d8                	sw	a4,4(a5)
    1b58:	a3ce                	sh	a1,4(a5)
    1b5a:	a3b6                	sh	a3,2(a5)
    1b5c:	4601                	li	a2,0
    1b5e:	4581                	li	a1,0
    1b60:	c07ff0ef          	jal	ra,1766 <USBFSH_CtrlTransfer>
    1b64:	df0fe06f          	j	154 <__riscv_restore_0>

00001b68 <HUB_GetPortStatus>:
    1b68:	dc8fe2ef          	jal	t0,130 <__riscv_save_0>
    1b6c:	87c18713          	addi	a4,gp,-1924 # 2000023c <GetPortStatus>
    1b70:	86b2                	mv	a3,a2
    1b72:	4310                	lw	a2,0(a4)
    1b74:	4358                	lw	a4,4(a4)
    1b76:	66c1ae23          	sw	a2,1660(gp) # 2000103c <USBFS_TX_Buf>
    1b7a:	67c18793          	addi	a5,gp,1660 # 2000103c <USBFS_TX_Buf>
    1b7e:	1141                	addi	sp,sp,-16
    1b80:	c3d8                	sw	a4,4(a5)
    1b82:	a3ce                	sh	a1,4(a5)
    1b84:	00e10613          	addi	a2,sp,14
    1b88:	85b6                	mv	a1,a3
    1b8a:	bddff0ef          	jal	ra,1766 <USBFSH_CtrlTransfer>
    1b8e:	0141                	addi	sp,sp,16
    1b90:	dc4fe06f          	j	154 <__riscv_restore_0>

00001b94 <HUB_ClearPortFeature>:
    1b94:	d9cfe2ef          	jal	t0,130 <__riscv_save_0>
    1b98:	86c18713          	addi	a4,gp,-1940 # 2000022c <ClearPortFeature>
    1b9c:	4314                	lw	a3,0(a4)
    1b9e:	4358                	lw	a4,4(a4)
    1ba0:	66d1ae23          	sw	a3,1660(gp) # 2000103c <USBFS_TX_Buf>
    1ba4:	67c18793          	addi	a5,gp,1660 # 2000103c <USBFS_TX_Buf>
    1ba8:	c3d8                	sw	a4,4(a5)
    1baa:	a3b2                	sh	a2,2(a5)
    1bac:	a3ce                	sh	a1,4(a5)
    1bae:	4601                	li	a2,0
    1bb0:	4581                	li	a1,0
    1bb2:	bb5ff0ef          	jal	ra,1766 <USBFSH_CtrlTransfer>
    1bb6:	d9efe06f          	j	154 <__riscv_restore_0>

00001bba <HUB_SetPortFeature>:
    1bba:	d76fe2ef          	jal	t0,130 <__riscv_save_0>
    1bbe:	88418713          	addi	a4,gp,-1916 # 20000244 <SetPortFeature>
    1bc2:	4314                	lw	a3,0(a4)
    1bc4:	4358                	lw	a4,4(a4)
    1bc6:	66d1ae23          	sw	a3,1660(gp) # 2000103c <USBFS_TX_Buf>
    1bca:	67c18793          	addi	a5,gp,1660 # 2000103c <USBFS_TX_Buf>
    1bce:	c3d8                	sw	a4,4(a5)
    1bd0:	a3b2                	sh	a2,2(a5)
    1bd2:	a3ce                	sh	a1,4(a5)
    1bd4:	4601                	li	a2,0
    1bd6:	4581                	li	a1,0
    1bd8:	b8fff0ef          	jal	ra,1766 <USBFSH_CtrlTransfer>
    1bdc:	d78fe06f          	j	154 <__riscv_restore_0>

00001be0 <HUB_GetClassDevDescr>:
    1be0:	d36fe2ef          	jal	t0,116 <__riscv_save_4>
    1be4:	87418793          	addi	a5,gp,-1932 # 20000234 <GetHubDescr>
    1be8:	4398                	lw	a4,0(a5)
    1bea:	43dc                	lw	a5,4(a5)
    1bec:	66e1ae23          	sw	a4,1660(gp) # 2000103c <USBFS_TX_Buf>
    1bf0:	67c18413          	addi	s0,gp,1660 # 2000103c <USBFS_TX_Buf>
    1bf4:	89aa                	mv	s3,a0
    1bf6:	84ae                	mv	s1,a1
    1bf8:	8932                	mv	s2,a2
    1bfa:	c05c                	sw	a5,4(s0)
    1bfc:	b6bff0ef          	jal	ra,1766 <USBFSH_CtrlTransfer>
    1c00:	e911                	bnez	a0,1c14 <HUB_GetClassDevDescr+0x34>
    1c02:	209c                	lbu	a5,0(s1)
    1c04:	864a                	mv	a2,s2
    1c06:	85a6                	mv	a1,s1
    1c08:	00f91023          	sh	a5,0(s2)
    1c0c:	854e                	mv	a0,s3
    1c0e:	a07e                	sh	a5,6(s0)
    1c10:	b57ff0ef          	jal	ra,1766 <USBFSH_CtrlTransfer>
    1c14:	d36fe06f          	j	14a <__riscv_restore_4>

00001c18 <I2C_init>:
    1c18:	d18fe2ef          	jal	t0,130 <__riscv_save_0>
    1c1c:	1101                	addi	sp,sp,-32
    1c1e:	4585                	li	a1,1
    1c20:	00400537          	lui	a0,0x400
    1c24:	052020ef          	jal	ra,3c76 <RCC_APB1PeriphClockCmd>
    1c28:	4585                	li	a1,1
    1c2a:	4521                	li	a0,8
    1c2c:	02c020ef          	jal	ra,3c58 <RCC_APB2PeriphClockCmd>
    1c30:	47f1                	li	a5,28
    1c32:	c63e                	sw	a5,12(sp)
    1c34:	6785                	lui	a5,0x1
    1c36:	c0078793          	addi	a5,a5,-1024 # c00 <USBH_EnumHubDevice+0x90>
    1c3a:	40011537          	lui	a0,0x40011
    1c3e:	827c                	sh	a5,4(sp)
    1c40:	004c                	addi	a1,sp,4
    1c42:	478d                	li	a5,3
    1c44:	c0050513          	addi	a0,a0,-1024 # 40010c00 <_eusrstack+0x2000bc00>
    1c48:	c43e                	sw	a5,8(sp)
    1c4a:	3c3010ef          	jal	ra,380c <GPIO_Init>
    1c4e:	000627b7          	lui	a5,0x62
    1c52:	a8078793          	addi	a5,a5,-1408 # 61a80 <_data_lma+0x5ad54>
    1c56:	c83e                	sw	a5,16(sp)
    1c58:	bfff07b7          	lui	a5,0xbfff0
    1c5c:	40006437          	lui	s0,0x40006
    1c60:	ca3e                	sw	a5,20(sp)
    1c62:	040007b7          	lui	a5,0x4000
    1c66:	cc3e                	sw	a5,24(sp)
    1c68:	080c                	addi	a1,sp,16
    1c6a:	6791                	lui	a5,0x4
    1c6c:	80040513          	addi	a0,s0,-2048 # 40005800 <_eusrstack+0x20000800>
    1c70:	86fc                	sh	a5,28(sp)
    1c72:	4db010ef          	jal	ra,394c <I2C_Init>
    1c76:	80040513          	addi	a0,s0,-2048
    1c7a:	4585                	li	a1,1
    1c7c:	5c9010ef          	jal	ra,3a44 <I2C_Cmd>
    1c80:	4585                	li	a1,1
    1c82:	80040513          	addi	a0,s0,-2048
    1c86:	60b010ef          	jal	ra,3a90 <I2C_AcknowledgeConfig>
    1c8a:	6105                	addi	sp,sp,32
    1c8c:	cc8fe06f          	j	154 <__riscv_restore_0>

00001c90 <I2C_WRITE_ONE_BYTE>:
    1c90:	c86fe2ef          	jal	t0,116 <__riscv_save_4>
    1c94:	40006437          	lui	s0,0x40006
    1c98:	89aa                	mv	s3,a0
    1c9a:	892e                	mv	s2,a1
    1c9c:	80040493          	addi	s1,s0,-2048 # 40005800 <_eusrstack+0x20000800>
    1ca0:	000205b7          	lui	a1,0x20
    1ca4:	8526                	mv	a0,s1
    1ca6:	631010ef          	jal	ra,3ad6 <I2C_GetFlagStatus>
    1caa:	f97d                	bnez	a0,1ca0 <I2C_WRITE_ONE_BYTE+0x10>
    1cac:	80040513          	addi	a0,s0,-2048
    1cb0:	4585                	li	a1,1
    1cb2:	00030437          	lui	s0,0x30
    1cb6:	400064b7          	lui	s1,0x40006
    1cba:	5a3010ef          	jal	ra,3a5c <I2C_GenerateSTART>
    1cbe:	0405                	addi	s0,s0,1
    1cc0:	80048a13          	addi	s4,s1,-2048 # 40005800 <_eusrstack+0x20000800>
    1cc4:	85a2                	mv	a1,s0
    1cc6:	8552                	mv	a0,s4
    1cc8:	5f9010ef          	jal	ra,3ac0 <I2C_CheckEvent>
    1ccc:	dd65                	beqz	a0,1cc4 <I2C_WRITE_ONE_BYTE+0x34>
    1cce:	80048513          	addi	a0,s1,-2048
    1cd2:	4601                	li	a2,0
    1cd4:	07800593          	li	a1,120
    1cd8:	00070437          	lui	s0,0x70
    1cdc:	400064b7          	lui	s1,0x40006
    1ce0:	5cf010ef          	jal	ra,3aae <I2C_Send7bitAddress>
    1ce4:	08240413          	addi	s0,s0,130 # 70082 <_data_lma+0x69356>
    1ce8:	80048a13          	addi	s4,s1,-2048 # 40005800 <_eusrstack+0x20000800>
    1cec:	85a2                	mv	a1,s0
    1cee:	8552                	mv	a0,s4
    1cf0:	5d1010ef          	jal	ra,3ac0 <I2C_CheckEvent>
    1cf4:	dd65                	beqz	a0,1cec <I2C_WRITE_ONE_BYTE+0x5c>
    1cf6:	0ff9f593          	andi	a1,s3,255
    1cfa:	80048513          	addi	a0,s1,-2048
    1cfe:	00070437          	lui	s0,0x70
    1d02:	400064b7          	lui	s1,0x40006
    1d06:	5a5010ef          	jal	ra,3aaa <I2C_SendData>
    1d0a:	08440413          	addi	s0,s0,132 # 70084 <_data_lma+0x69358>
    1d0e:	80048993          	addi	s3,s1,-2048 # 40005800 <_eusrstack+0x20000800>
    1d12:	85a2                	mv	a1,s0
    1d14:	854e                	mv	a0,s3
    1d16:	5ab010ef          	jal	ra,3ac0 <I2C_CheckEvent>
    1d1a:	dd65                	beqz	a0,1d12 <I2C_WRITE_ONE_BYTE+0x82>
    1d1c:	85ca                	mv	a1,s2
    1d1e:	80048513          	addi	a0,s1,-2048
    1d22:	00070437          	lui	s0,0x70
    1d26:	400064b7          	lui	s1,0x40006
    1d2a:	581010ef          	jal	ra,3aaa <I2C_SendData>
    1d2e:	08440413          	addi	s0,s0,132 # 70084 <_data_lma+0x69358>
    1d32:	80048913          	addi	s2,s1,-2048 # 40005800 <_eusrstack+0x20000800>
    1d36:	85a2                	mv	a1,s0
    1d38:	854a                	mv	a0,s2
    1d3a:	587010ef          	jal	ra,3ac0 <I2C_CheckEvent>
    1d3e:	dd65                	beqz	a0,1d36 <I2C_WRITE_ONE_BYTE+0xa6>
    1d40:	4585                	li	a1,1
    1d42:	80048513          	addi	a0,s1,-2048
    1d46:	531010ef          	jal	ra,3a76 <I2C_GenerateSTOP>
    1d4a:	c00fe06f          	j	14a <__riscv_restore_4>

00001d4e <i2c_transmit>:
    1d4e:	bc8fe2ef          	jal	t0,116 <__riscv_save_4>
    1d52:	400064b7          	lui	s1,0x40006
    1d56:	8a2a                	mv	s4,a0
    1d58:	842e                	mv	s0,a1
    1d5a:	8932                	mv	s2,a2
    1d5c:	80048993          	addi	s3,s1,-2048 # 40005800 <_eusrstack+0x20000800>
    1d60:	000205b7          	lui	a1,0x20
    1d64:	854e                	mv	a0,s3
    1d66:	571010ef          	jal	ra,3ad6 <I2C_GetFlagStatus>
    1d6a:	f97d                	bnez	a0,1d60 <i2c_transmit+0x12>
    1d6c:	80048513          	addi	a0,s1,-2048
    1d70:	4585                	li	a1,1
    1d72:	000304b7          	lui	s1,0x30
    1d76:	400069b7          	lui	s3,0x40006
    1d7a:	4e3010ef          	jal	ra,3a5c <I2C_GenerateSTART>
    1d7e:	0485                	addi	s1,s1,1
    1d80:	80098a93          	addi	s5,s3,-2048 # 40005800 <_eusrstack+0x20000800>
    1d84:	85a6                	mv	a1,s1
    1d86:	8556                	mv	a0,s5
    1d88:	539010ef          	jal	ra,3ac0 <I2C_CheckEvent>
    1d8c:	dd65                	beqz	a0,1d84 <i2c_transmit+0x36>
    1d8e:	80098513          	addi	a0,s3,-2048
    1d92:	4601                	li	a2,0
    1d94:	85d2                	mv	a1,s4
    1d96:	000709b7          	lui	s3,0x70
    1d9a:	400064b7          	lui	s1,0x40006
    1d9e:	511010ef          	jal	ra,3aae <I2C_Send7bitAddress>
    1da2:	08298993          	addi	s3,s3,130 # 70082 <_data_lma+0x69356>
    1da6:	80048493          	addi	s1,s1,-2048 # 40005800 <_eusrstack+0x20000800>
    1daa:	85ce                	mv	a1,s3
    1dac:	8526                	mv	a0,s1
    1dae:	513010ef          	jal	ra,3ac0 <I2C_CheckEvent>
    1db2:	dd65                	beqz	a0,1daa <i2c_transmit+0x5c>
    1db4:	400064b7          	lui	s1,0x40006
    1db8:	000709b7          	lui	s3,0x70
    1dbc:	9922                	add	s2,s2,s0
    1dbe:	80048493          	addi	s1,s1,-2048 # 40005800 <_eusrstack+0x20000800>
    1dc2:	08498993          	addi	s3,s3,132 # 70084 <_data_lma+0x69358>
    1dc6:	01241b63          	bne	s0,s2,1ddc <i2c_transmit+0x8e>
    1dca:	40006537          	lui	a0,0x40006
    1dce:	4585                	li	a1,1
    1dd0:	80050513          	addi	a0,a0,-2048 # 40005800 <_eusrstack+0x20000800>
    1dd4:	4a3010ef          	jal	ra,3a76 <I2C_GenerateSTOP>
    1dd8:	b72fe06f          	j	14a <__riscv_restore_4>
    1ddc:	200c                	lbu	a1,0(s0)
    1dde:	8526                	mv	a0,s1
    1de0:	4cb010ef          	jal	ra,3aaa <I2C_SendData>
    1de4:	85ce                	mv	a1,s3
    1de6:	8526                	mv	a0,s1
    1de8:	4d9010ef          	jal	ra,3ac0 <I2C_CheckEvent>
    1dec:	dd65                	beqz	a0,1de4 <i2c_transmit+0x96>
    1dee:	0405                	addi	s0,s0,1
    1df0:	bfd9                	j	1dc6 <i2c_transmit+0x78>

00001df2 <ssd1306_I2C_WriteMulti>:
    1df2:	b3efe2ef          	jal	t0,130 <__riscv_save_0>
    1df6:	7111                	addi	sp,sp,-256
    1df8:	804c                	sb	a1,0(sp)
    1dfa:	4781                	li	a5,0
    1dfc:	00d7e963          	bltu	a5,a3,1e0e <ssd1306_I2C_WriteMulti+0x1c>
    1e00:	858a                	mv	a1,sp
    1e02:	00168613          	addi	a2,a3,1
    1e06:	37a1                	jal	1d4e <i2c_transmit>
    1e08:	6111                	addi	sp,sp,256
    1e0a:	b4afe06f          	j	154 <__riscv_restore_0>
    1e0e:	00f605b3          	add	a1,a2,a5
    1e12:	218c                	lbu	a1,0(a1)
    1e14:	0218                	addi	a4,sp,256
    1e16:	973e                	add	a4,a4,a5
    1e18:	0785                	addi	a5,a5,1
    1e1a:	f0b700a3          	sb	a1,-255(a4)
    1e1e:	0ff7f793          	andi	a5,a5,255
    1e22:	bfe9                	j	1dfc <ssd1306_I2C_WriteMulti+0xa>

00001e24 <SSD1306_UpdateScreen>:
    1e24:	b0cfe2ef          	jal	t0,130 <__riscv_save_0>
    1e28:	6bc18493          	addi	s1,gp,1724 # 2000107c <SSD1306_Buffer>
    1e2c:	0b000413          	li	s0,176
    1e30:	0b800913          	li	s2,184
    1e34:	85a2                	mv	a1,s0
    1e36:	4501                	li	a0,0
    1e38:	3da1                	jal	1c90 <I2C_WRITE_ONE_BYTE>
    1e3a:	4581                	li	a1,0
    1e3c:	4501                	li	a0,0
    1e3e:	3d89                	jal	1c90 <I2C_WRITE_ONE_BYTE>
    1e40:	45c1                	li	a1,16
    1e42:	4501                	li	a0,0
    1e44:	35b1                	jal	1c90 <I2C_WRITE_ONE_BYTE>
    1e46:	0405                	addi	s0,s0,1
    1e48:	8626                	mv	a2,s1
    1e4a:	08000693          	li	a3,128
    1e4e:	04000593          	li	a1,64
    1e52:	07800513          	li	a0,120
    1e56:	0ff47413          	andi	s0,s0,255
    1e5a:	3f61                	jal	1df2 <ssd1306_I2C_WriteMulti>
    1e5c:	08048493          	addi	s1,s1,128
    1e60:	fd241ae3          	bne	s0,s2,1e34 <SSD1306_UpdateScreen+0x10>
    1e64:	af0fe06f          	j	154 <__riscv_restore_0>

00001e68 <SSD1306_Fill>:
    1e68:	ac8fe2ef          	jal	t0,130 <__riscv_save_0>
    1e6c:	0ff00593          	li	a1,255
    1e70:	e111                	bnez	a0,1e74 <SSD1306_Fill+0xc>
    1e72:	4581                	li	a1,0
    1e74:	40000613          	li	a2,1024
    1e78:	6bc18513          	addi	a0,gp,1724 # 2000107c <SSD1306_Buffer>
    1e7c:	ae4fe0ef          	jal	ra,160 <memset>
    1e80:	ad4fe06f          	j	154 <__riscv_restore_0>

00001e84 <SSD1306_DrawPixel>:
    1e84:	07f00793          	li	a5,127
    1e88:	02a7ee63          	bltu	a5,a0,1ec4 <SSD1306_DrawPixel+0x40>
    1e8c:	03f00793          	li	a5,63
    1e90:	02b7ea63          	bltu	a5,a1,1ec4 <SSD1306_DrawPixel+0x40>
    1e94:	8941c783          	lbu	a5,-1900(gp) # 20000254 <_edata+0x4>
    1e98:	c399                	beqz	a5,1e9e <SSD1306_DrawPixel+0x1a>
    1e9a:	00163613          	seqz	a2,a2
    1e9e:	0035d793          	srli	a5,a1,0x3
    1ea2:	079e                	slli	a5,a5,0x7
    1ea4:	97aa                	add	a5,a5,a0
    1ea6:	899d                	andi	a1,a1,7
    1ea8:	4705                	li	a4,1
    1eaa:	6bc18513          	addi	a0,gp,1724 # 2000107c <SSD1306_Buffer>
    1eae:	00b715b3          	sll	a1,a4,a1
    1eb2:	953e                	add	a0,a0,a5
    1eb4:	05e2                	slli	a1,a1,0x18
    1eb6:	00050783          	lb	a5,0(a0)
    1eba:	85e1                	srai	a1,a1,0x18
    1ebc:	00e61563          	bne	a2,a4,1ec6 <SSD1306_DrawPixel+0x42>
    1ec0:	8ddd                	or	a1,a1,a5
    1ec2:	a10c                	sb	a1,0(a0)
    1ec4:	8082                	ret
    1ec6:	fff5c593          	not	a1,a1
    1eca:	8dfd                	and	a1,a1,a5
    1ecc:	bfdd                	j	1ec2 <SSD1306_DrawPixel+0x3e>

00001ece <SSD1306_GotoXY>:
    1ece:	89018793          	addi	a5,gp,-1904 # 20000250 <_edata>
    1ed2:	a38a                	sh	a0,0(a5)
    1ed4:	a3ae                	sh	a1,2(a5)
    1ed6:	8082                	ret

00001ed8 <SSD1306_Putc>:
    1ed8:	a30fe2ef          	jal	t0,108 <__riscv_save_10>
    1edc:	2198                	lbu	a4,0(a1)
    1ede:	8901d783          	lhu	a5,-1904(gp) # 20000250 <_edata>
    1ee2:	97ba                	add	a5,a5,a4
    1ee4:	07f00713          	li	a4,127
    1ee8:	06f74e63          	blt	a4,a5,1f64 <SSD1306_Putc+0x8c>
    1eec:	89018413          	addi	s0,gp,-1904 # 20000250 <_edata>
    1ef0:	3198                	lbu	a4,1(a1)
    1ef2:	203e                	lhu	a5,2(s0)
    1ef4:	84ae                	mv	s1,a1
    1ef6:	97ba                	add	a5,a5,a4
    1ef8:	03f00713          	li	a4,63
    1efc:	06f74463          	blt	a4,a5,1f64 <SSD1306_Putc+0x8c>
    1f00:	8c2a                	mv	s8,a0
    1f02:	8932                	mv	s2,a2
    1f04:	4b01                	li	s6,0
    1f06:	fe050993          	addi	s3,a0,-32
    1f0a:	00163a13          	seqz	s4,a2
    1f0e:	309c                	lbu	a5,1(s1)
    1f10:	00fb6963          	bltu	s6,a5,1f22 <SSD1306_Putc+0x4a>
    1f14:	201e                	lhu	a5,0(s0)
    1f16:	2098                	lbu	a4,0(s1)
    1f18:	97ba                	add	a5,a5,a4
    1f1a:	a01e                	sh	a5,0(s0)
    1f1c:	8562                	mv	a0,s8
    1f1e:	a22fe06f          	j	140 <__riscv_restore_10>
    1f22:	02f987b3          	mul	a5,s3,a5
    1f26:	40d8                	lw	a4,4(s1)
    1f28:	4b81                	li	s7,0
    1f2a:	97da                	add	a5,a5,s6
    1f2c:	0786                	slli	a5,a5,0x1
    1f2e:	97ba                	add	a5,a5,a4
    1f30:	0007da83          	lhu	s5,0(a5) # 4000 <memcpy+0x90>
    1f34:	209c                	lbu	a5,0(s1)
    1f36:	200a                	lhu	a0,0(s0)
    1f38:	00fbe463          	bltu	s7,a5,1f40 <SSD1306_Putc+0x68>
    1f3c:	0b05                	addi	s6,s6,1
    1f3e:	bfc1                	j	1f0e <SSD1306_Putc+0x36>
    1f40:	202e                	lhu	a1,2(s0)
    1f42:	955e                	add	a0,a0,s7
    1f44:	017a97b3          	sll	a5,s5,s7
    1f48:	95da                	add	a1,a1,s6
    1f4a:	0542                	slli	a0,a0,0x10
    1f4c:	05c2                	slli	a1,a1,0x10
    1f4e:	01079713          	slli	a4,a5,0x10
    1f52:	8141                	srli	a0,a0,0x10
    1f54:	81c1                	srli	a1,a1,0x10
    1f56:	864a                	mv	a2,s2
    1f58:	00074363          	bltz	a4,1f5e <SSD1306_Putc+0x86>
    1f5c:	8652                	mv	a2,s4
    1f5e:	371d                	jal	1e84 <SSD1306_DrawPixel>
    1f60:	0b85                	addi	s7,s7,1
    1f62:	bfc9                	j	1f34 <SSD1306_Putc+0x5c>
    1f64:	4c01                	li	s8,0
    1f66:	bf5d                	j	1f1c <SSD1306_Putc+0x44>

00001f68 <SSD1306_Puts>:
    1f68:	9c8fe2ef          	jal	t0,130 <__riscv_save_0>
    1f6c:	842a                	mv	s0,a0
    1f6e:	84ae                	mv	s1,a1
    1f70:	8932                	mv	s2,a2
    1f72:	00040783          	lb	a5,0(s0)
    1f76:	e781                	bnez	a5,1f7e <SSD1306_Puts+0x16>
    1f78:	853e                	mv	a0,a5
    1f7a:	9dafe06f          	j	154 <__riscv_restore_0>
    1f7e:	853e                	mv	a0,a5
    1f80:	864a                	mv	a2,s2
    1f82:	85a6                	mv	a1,s1
    1f84:	3f91                	jal	1ed8 <SSD1306_Putc>
    1f86:	00040783          	lb	a5,0(s0)
    1f8a:	fef517e3          	bne	a0,a5,1f78 <SSD1306_Puts+0x10>
    1f8e:	0405                	addi	s0,s0,1
    1f90:	b7cd                	j	1f72 <SSD1306_Puts+0xa>

00001f92 <SSD1306_DrawLine>:
    1f92:	976fe2ef          	jal	t0,108 <__riscv_save_10>
    1f96:	07f00793          	li	a5,127
    1f9a:	8aba                	mv	s5,a4
    1f9c:	07f00413          	li	s0,127
    1fa0:	00a7e363          	bltu	a5,a0,1fa6 <SSD1306_DrawLine+0x14>
    1fa4:	842a                	mv	s0,a0
    1fa6:	0442                	slli	s0,s0,0x10
    1fa8:	07f00793          	li	a5,127
    1fac:	8041                	srli	s0,s0,0x10
    1fae:	8b32                	mv	s6,a2
    1fb0:	00c7f463          	bgeu	a5,a2,1fb8 <SSD1306_DrawLine+0x26>
    1fb4:	07f00b13          	li	s6,127
    1fb8:	0b42                	slli	s6,s6,0x10
    1fba:	03f00793          	li	a5,63
    1fbe:	010b5b13          	srli	s6,s6,0x10
    1fc2:	84ae                	mv	s1,a1
    1fc4:	00b7f463          	bgeu	a5,a1,1fcc <SSD1306_DrawLine+0x3a>
    1fc8:	03f00493          	li	s1,63
    1fcc:	04c2                	slli	s1,s1,0x10
    1fce:	03f00793          	li	a5,63
    1fd2:	80c1                	srli	s1,s1,0x10
    1fd4:	8bb6                	mv	s7,a3
    1fd6:	00d7f463          	bgeu	a5,a3,1fde <SSD1306_DrawLine+0x4c>
    1fda:	03f00b93          	li	s7,63
    1fde:	0bc2                	slli	s7,s7,0x10
    1fe0:	010bdb93          	srli	s7,s7,0x10
    1fe4:	408b09b3          	sub	s3,s6,s0
    1fe8:	01646463          	bltu	s0,s6,1ff0 <SSD1306_DrawLine+0x5e>
    1fec:	416409b3          	sub	s3,s0,s6
    1ff0:	09c2                	slli	s3,s3,0x10
    1ff2:	4109d993          	srai	s3,s3,0x10
    1ff6:	0574f563          	bgeu	s1,s7,2040 <SSD1306_DrawLine+0xae>
    1ffa:	409b8a33          	sub	s4,s7,s1
    1ffe:	0a42                	slli	s4,s4,0x10
    2000:	410a5a13          	srai	s4,s4,0x10
    2004:	5cfd                	li	s9,-1
    2006:	01647363          	bgeu	s0,s6,200c <SSD1306_DrawLine+0x7a>
    200a:	4c85                	li	s9,1
    200c:	4c05                	li	s8,1
    200e:	4909                	li	s2,2
    2010:	053a5363          	bge	s4,s3,2056 <SSD1306_DrawLine+0xc4>
    2014:	0329c933          	div	s2,s3,s2
    2018:	04099f63          	bnez	s3,2076 <SSD1306_DrawLine+0xe4>
    201c:	009bf563          	bgeu	s7,s1,2026 <SSD1306_DrawLine+0x94>
    2020:	87a6                	mv	a5,s1
    2022:	84de                	mv	s1,s7
    2024:	8bbe                	mv	s7,a5
    2026:	8522                	mv	a0,s0
    2028:	008b7363          	bgeu	s6,s0,202e <SSD1306_DrawLine+0x9c>
    202c:	855a                	mv	a0,s6
    202e:	01051413          	slli	s0,a0,0x10
    2032:	8041                	srli	s0,s0,0x10
    2034:	04c2                	slli	s1,s1,0x10
    2036:	84c1                	srai	s1,s1,0x10
    2038:	029bd763          	bge	s7,s1,2066 <SSD1306_DrawLine+0xd4>
    203c:	904fe06f          	j	140 <__riscv_restore_10>
    2040:	41748a33          	sub	s4,s1,s7
    2044:	0a42                	slli	s4,s4,0x10
    2046:	410a5a13          	srai	s4,s4,0x10
    204a:	4c85                	li	s9,1
    204c:	01646363          	bltu	s0,s6,2052 <SSD1306_DrawLine+0xc0>
    2050:	5cfd                	li	s9,-1
    2052:	5c7d                	li	s8,-1
    2054:	bf6d                	j	200e <SSD1306_DrawLine+0x7c>
    2056:	032a4933          	div	s2,s4,s2
    205a:	41200933          	neg	s2,s2
    205e:	0942                	slli	s2,s2,0x10
    2060:	41095913          	srai	s2,s2,0x10
    2064:	bf55                	j	2018 <SSD1306_DrawLine+0x86>
    2066:	04c2                	slli	s1,s1,0x10
    2068:	80c1                	srli	s1,s1,0x10
    206a:	85a6                	mv	a1,s1
    206c:	8656                	mv	a2,s5
    206e:	8522                	mv	a0,s0
    2070:	3d11                	jal	1e84 <SSD1306_DrawPixel>
    2072:	0485                	addi	s1,s1,1
    2074:	b7c1                	j	2034 <SSD1306_DrawLine+0xa2>
    2076:	41300d33          	neg	s10,s3
    207a:	020a1b63          	bnez	s4,20b0 <SSD1306_DrawLine+0x11e>
    207e:	85de                	mv	a1,s7
    2080:	0174f363          	bgeu	s1,s7,2086 <SSD1306_DrawLine+0xf4>
    2084:	85a6                	mv	a1,s1
    2086:	01059493          	slli	s1,a1,0x10
    208a:	80c1                	srli	s1,s1,0x10
    208c:	008b7563          	bgeu	s6,s0,2096 <SSD1306_DrawLine+0x104>
    2090:	87a2                	mv	a5,s0
    2092:	845a                	mv	s0,s6
    2094:	8b3e                	mv	s6,a5
    2096:	0442                	slli	s0,s0,0x10
    2098:	8441                	srai	s0,s0,0x10
    209a:	fa8b41e3          	blt	s6,s0,203c <SSD1306_DrawLine+0xaa>
    209e:	0442                	slli	s0,s0,0x10
    20a0:	8041                	srli	s0,s0,0x10
    20a2:	8522                	mv	a0,s0
    20a4:	8656                	mv	a2,s5
    20a6:	85a6                	mv	a1,s1
    20a8:	3bf1                	jal	1e84 <SSD1306_DrawPixel>
    20aa:	0405                	addi	s0,s0,1
    20ac:	b7ed                	j	2096 <SSD1306_DrawLine+0x104>
    20ae:	893e                	mv	s2,a5
    20b0:	8656                	mv	a2,s5
    20b2:	85a6                	mv	a1,s1
    20b4:	8522                	mv	a0,s0
    20b6:	dcfff0ef          	jal	ra,1e84 <SSD1306_DrawPixel>
    20ba:	01641463          	bne	s0,s6,20c2 <SSD1306_DrawLine+0x130>
    20be:	f7748fe3          	beq	s1,s7,203c <SSD1306_DrawLine+0xaa>
    20c2:	87ca                	mv	a5,s2
    20c4:	012d5963          	bge	s10,s2,20d6 <SSD1306_DrawLine+0x144>
    20c8:	414907b3          	sub	a5,s2,s4
    20cc:	9466                	add	s0,s0,s9
    20ce:	07c2                	slli	a5,a5,0x10
    20d0:	0442                	slli	s0,s0,0x10
    20d2:	87c1                	srai	a5,a5,0x10
    20d4:	8041                	srli	s0,s0,0x10
    20d6:	fd495ce3          	bge	s2,s4,20ae <SSD1306_DrawLine+0x11c>
    20da:	97ce                	add	a5,a5,s3
    20dc:	94e2                	add	s1,s1,s8
    20de:	07c2                	slli	a5,a5,0x10
    20e0:	04c2                	slli	s1,s1,0x10
    20e2:	87c1                	srai	a5,a5,0x10
    20e4:	80c1                	srli	s1,s1,0x10
    20e6:	b7e1                	j	20ae <SSD1306_DrawLine+0x11c>

000020e8 <SSD1306_Init>:
    20e8:	848fe2ef          	jal	t0,130 <__riscv_save_0>
    20ec:	b2dff0ef          	jal	ra,1c18 <I2C_init>
    20f0:	06400513          	li	a0,100
    20f4:	56d010ef          	jal	ra,3e60 <Delay_Ms>
    20f8:	0ae00593          	li	a1,174
    20fc:	4501                	li	a0,0
    20fe:	b93ff0ef          	jal	ra,1c90 <I2C_WRITE_ONE_BYTE>
    2102:	02000593          	li	a1,32
    2106:	4501                	li	a0,0
    2108:	b89ff0ef          	jal	ra,1c90 <I2C_WRITE_ONE_BYTE>
    210c:	45c1                	li	a1,16
    210e:	4501                	li	a0,0
    2110:	b81ff0ef          	jal	ra,1c90 <I2C_WRITE_ONE_BYTE>
    2114:	0b000593          	li	a1,176
    2118:	4501                	li	a0,0
    211a:	b77ff0ef          	jal	ra,1c90 <I2C_WRITE_ONE_BYTE>
    211e:	0c800593          	li	a1,200
    2122:	4501                	li	a0,0
    2124:	b6dff0ef          	jal	ra,1c90 <I2C_WRITE_ONE_BYTE>
    2128:	4581                	li	a1,0
    212a:	4501                	li	a0,0
    212c:	b65ff0ef          	jal	ra,1c90 <I2C_WRITE_ONE_BYTE>
    2130:	45c1                	li	a1,16
    2132:	4501                	li	a0,0
    2134:	b5dff0ef          	jal	ra,1c90 <I2C_WRITE_ONE_BYTE>
    2138:	04000593          	li	a1,64
    213c:	4501                	li	a0,0
    213e:	b53ff0ef          	jal	ra,1c90 <I2C_WRITE_ONE_BYTE>
    2142:	08100593          	li	a1,129
    2146:	4501                	li	a0,0
    2148:	b49ff0ef          	jal	ra,1c90 <I2C_WRITE_ONE_BYTE>
    214c:	0ff00593          	li	a1,255
    2150:	4501                	li	a0,0
    2152:	b3fff0ef          	jal	ra,1c90 <I2C_WRITE_ONE_BYTE>
    2156:	0a100593          	li	a1,161
    215a:	4501                	li	a0,0
    215c:	b35ff0ef          	jal	ra,1c90 <I2C_WRITE_ONE_BYTE>
    2160:	0a600593          	li	a1,166
    2164:	4501                	li	a0,0
    2166:	b2bff0ef          	jal	ra,1c90 <I2C_WRITE_ONE_BYTE>
    216a:	0a800593          	li	a1,168
    216e:	4501                	li	a0,0
    2170:	b21ff0ef          	jal	ra,1c90 <I2C_WRITE_ONE_BYTE>
    2174:	03f00593          	li	a1,63
    2178:	4501                	li	a0,0
    217a:	b17ff0ef          	jal	ra,1c90 <I2C_WRITE_ONE_BYTE>
    217e:	0a400593          	li	a1,164
    2182:	4501                	li	a0,0
    2184:	b0dff0ef          	jal	ra,1c90 <I2C_WRITE_ONE_BYTE>
    2188:	0d300593          	li	a1,211
    218c:	4501                	li	a0,0
    218e:	b03ff0ef          	jal	ra,1c90 <I2C_WRITE_ONE_BYTE>
    2192:	4581                	li	a1,0
    2194:	4501                	li	a0,0
    2196:	afbff0ef          	jal	ra,1c90 <I2C_WRITE_ONE_BYTE>
    219a:	0d500593          	li	a1,213
    219e:	4501                	li	a0,0
    21a0:	af1ff0ef          	jal	ra,1c90 <I2C_WRITE_ONE_BYTE>
    21a4:	0f000593          	li	a1,240
    21a8:	4501                	li	a0,0
    21aa:	ae7ff0ef          	jal	ra,1c90 <I2C_WRITE_ONE_BYTE>
    21ae:	0d900593          	li	a1,217
    21b2:	4501                	li	a0,0
    21b4:	addff0ef          	jal	ra,1c90 <I2C_WRITE_ONE_BYTE>
    21b8:	02200593          	li	a1,34
    21bc:	4501                	li	a0,0
    21be:	ad3ff0ef          	jal	ra,1c90 <I2C_WRITE_ONE_BYTE>
    21c2:	0da00593          	li	a1,218
    21c6:	4501                	li	a0,0
    21c8:	ac9ff0ef          	jal	ra,1c90 <I2C_WRITE_ONE_BYTE>
    21cc:	45c9                	li	a1,18
    21ce:	4501                	li	a0,0
    21d0:	ac1ff0ef          	jal	ra,1c90 <I2C_WRITE_ONE_BYTE>
    21d4:	0db00593          	li	a1,219
    21d8:	4501                	li	a0,0
    21da:	ab7ff0ef          	jal	ra,1c90 <I2C_WRITE_ONE_BYTE>
    21de:	02000593          	li	a1,32
    21e2:	4501                	li	a0,0
    21e4:	aadff0ef          	jal	ra,1c90 <I2C_WRITE_ONE_BYTE>
    21e8:	08d00593          	li	a1,141
    21ec:	4501                	li	a0,0
    21ee:	aa3ff0ef          	jal	ra,1c90 <I2C_WRITE_ONE_BYTE>
    21f2:	45d1                	li	a1,20
    21f4:	4501                	li	a0,0
    21f6:	a9bff0ef          	jal	ra,1c90 <I2C_WRITE_ONE_BYTE>
    21fa:	0af00593          	li	a1,175
    21fe:	4501                	li	a0,0
    2200:	a91ff0ef          	jal	ra,1c90 <I2C_WRITE_ONE_BYTE>
    2204:	4501                	li	a0,0
    2206:	c63ff0ef          	jal	ra,1e68 <SSD1306_Fill>
    220a:	c1bff0ef          	jal	ra,1e24 <SSD1306_UpdateScreen>
    220e:	89018793          	addi	a5,gp,-1904 # 20000250 <_edata>
    2212:	4705                	li	a4,1
    2214:	0007a023          	sw	zero,0(a5)
    2218:	b3d8                	sb	a4,5(a5)
    221a:	f3bfd06f          	j	154 <__riscv_restore_0>

0000221e <NMI_Handler>:
    221e:	a001                	j	221e <NMI_Handler>

00002220 <HardFault_Handler>:
    2220:	a001                	j	2220 <HardFault_Handler>

00002222 <InitGPIOs>:
    2222:	f0ffd2ef          	jal	t0,130 <__riscv_save_0>
    2226:	1141                	addi	sp,sp,-16
    2228:	4585                	li	a1,1
    222a:	4511                	li	a0,4
    222c:	22d010ef          	jal	ra,3c58 <RCC_APB2PeriphClockCmd>
    2230:	4585                	li	a1,1
    2232:	4521                	li	a0,8
    2234:	225010ef          	jal	ra,3c58 <RCC_APB2PeriphClockCmd>
    2238:	40011437          	lui	s0,0x40011
    223c:	448d                	li	s1,3
    223e:	4941                	li	s2,16
    2240:	4789                	li	a5,2
    2242:	004c                	addi	a1,sp,4
    2244:	80040513          	addi	a0,s0,-2048 # 40010800 <_eusrstack+0x2000b800>
    2248:	c64a                	sw	s2,12(sp)
    224a:	827c                	sh	a5,4(sp)
    224c:	c426                	sw	s1,8(sp)
    224e:	5be010ef          	jal	ra,380c <GPIO_Init>
    2252:	6785                	lui	a5,0x1
    2254:	20078793          	addi	a5,a5,512 # 1200 <USBH_MainDeal+0x1b8>
    2258:	004c                	addi	a1,sp,4
    225a:	c0040513          	addi	a0,s0,-1024
    225e:	c64a                	sw	s2,12(sp)
    2260:	827c                	sh	a5,4(sp)
    2262:	c426                	sw	s1,8(sp)
    2264:	5a8010ef          	jal	ra,380c <GPIO_Init>
    2268:	4791                	li	a5,4
    226a:	c63e                	sw	a5,12(sp)
    226c:	004c                	addi	a1,sp,4
    226e:	6799                	lui	a5,0x6
    2270:	c0040513          	addi	a0,s0,-1024
    2274:	827c                	sh	a5,4(sp)
    2276:	c426                	sw	s1,8(sp)
    2278:	594010ef          	jal	ra,380c <GPIO_Init>
    227c:	0141                	addi	sp,sp,16
    227e:	ed7fd06f          	j	154 <__riscv_restore_0>

00002282 <WriteConfig>:
    2282:	eaffd2ef          	jal	t0,130 <__riscv_save_0>
    2286:	3bc010ef          	jal	ra,3642 <FLASH_Unlock>
    228a:	03100513          	li	a0,49
    228e:	3dc010ef          	jal	ra,366a <FLASH_ClearFlag>
    2292:	0800c537          	lui	a0,0x800c
    2296:	418010ef          	jal	ra,36ae <FLASH_ErasePage>
    229a:	89818793          	addi	a5,gp,-1896 # 20000258 <config>
    229e:	fab00693          	li	a3,-85
    22a2:	b3b4                	sb	a3,3(a5)
    22a4:	8991c583          	lbu	a1,-1895(gp) # 20000259 <config+0x1>
    22a8:	8981c783          	lbu	a5,-1896(gp) # 20000258 <config>
    22ac:	0800c537          	lui	a0,0x800c
    22b0:	05a2                	slli	a1,a1,0x8
    22b2:	8ddd                	or	a1,a1,a5
    22b4:	89a1c783          	lbu	a5,-1894(gp) # 2000025a <config+0x2>
    22b8:	20001437          	lui	s0,0x20001
    22bc:	0800c4b7          	lui	s1,0x800c
    22c0:	07c2                	slli	a5,a5,0x10
    22c2:	8fcd                	or	a5,a5,a1
    22c4:	89b1c583          	lbu	a1,-1893(gp) # 2000025b <config+0x3>
    22c8:	05e2                	slli	a1,a1,0x18
    22ca:	8ddd                	or	a1,a1,a5
    22cc:	41e010ef          	jal	ra,36ea <FLASH_ProgramWord>
    22d0:	67d44583          	lbu	a1,1661(s0) # 2000167d <msg+0x1>
    22d4:	67c44783          	lbu	a5,1660(s0)
    22d8:	00448513          	addi	a0,s1,4 # 800c004 <_data_lma+0x80052d8>
    22dc:	05a2                	slli	a1,a1,0x8
    22de:	8ddd                	or	a1,a1,a5
    22e0:	67e44783          	lbu	a5,1662(s0)
    22e4:	07c2                	slli	a5,a5,0x10
    22e6:	8fcd                	or	a5,a5,a1
    22e8:	67f44583          	lbu	a1,1663(s0)
    22ec:	67c40413          	addi	s0,s0,1660
    22f0:	05e2                	slli	a1,a1,0x18
    22f2:	8ddd                	or	a1,a1,a5
    22f4:	3f6010ef          	jal	ra,36ea <FLASH_ProgramWord>
    22f8:	304c                	lbu	a1,5(s0)
    22fa:	205c                	lbu	a5,4(s0)
    22fc:	00848513          	addi	a0,s1,8
    2300:	05a2                	slli	a1,a1,0x8
    2302:	8ddd                	or	a1,a1,a5
    2304:	207c                	lbu	a5,6(s0)
    2306:	07c2                	slli	a5,a5,0x10
    2308:	8fcd                	or	a5,a5,a1
    230a:	306c                	lbu	a1,7(s0)
    230c:	05e2                	slli	a1,a1,0x18
    230e:	8ddd                	or	a1,a1,a5
    2310:	3da010ef          	jal	ra,36ea <FLASH_ProgramWord>
    2314:	340c                	lbu	a1,9(s0)
    2316:	241c                	lbu	a5,8(s0)
    2318:	00c48513          	addi	a0,s1,12
    231c:	05a2                	slli	a1,a1,0x8
    231e:	8ddd                	or	a1,a1,a5
    2320:	243c                	lbu	a5,10(s0)
    2322:	07c2                	slli	a5,a5,0x10
    2324:	8fcd                	or	a5,a5,a1
    2326:	342c                	lbu	a1,11(s0)
    2328:	05e2                	slli	a1,a1,0x18
    232a:	8ddd                	or	a1,a1,a5
    232c:	3be010ef          	jal	ra,36ea <FLASH_ProgramWord>
    2330:	32c010ef          	jal	ra,365c <FLASH_Lock>
    2334:	e21fd06f          	j	154 <__riscv_restore_0>

00002338 <ReadConfig>:
    2338:	df9fd2ef          	jal	t0,130 <__riscv_save_0>
    233c:	0800c737          	lui	a4,0x800c
    2340:	332c                	lbu	a1,3(a4)
    2342:	0ab00613          	li	a2,171
    2346:	89818793          	addi	a5,gp,-1896 # 20000258 <config>
    234a:	02c58863          	beq	a1,a2,237a <ReadConfig+0x42>
    234e:	fab00713          	li	a4,-85
    2352:	b3b8                	sb	a4,3(a5)
    2354:	4751                	li	a4,20
    2356:	000780a3          	sb	zero,1(a5) # 6001 <Font11x18+0x969>
    235a:	88018c23          	sb	zero,-1896(gp) # 20000258 <config>
    235e:	a3b8                	sb	a4,2(a5)
    2360:	370d                	jal	2282 <WriteConfig>
    2362:	0800c5b7          	lui	a1,0x800c
    2366:	20001537          	lui	a0,0x20001
    236a:	4631                	li	a2,12
    236c:	0591                	addi	a1,a1,4
    236e:	67c50513          	addi	a0,a0,1660 # 2000167c <msg>
    2372:	3ff010ef          	jal	ra,3f70 <memcpy>
    2376:	ddffd06f          	j	154 <__riscv_restore_0>
    237a:	3310                	lbu	a2,1(a4)
    237c:	b390                	sb	a2,1(a5)
    237e:	2310                	lbu	a2,0(a4)
    2380:	88c18c23          	sb	a2,-1896(gp) # 20000258 <config>
    2384:	00270703          	lb	a4,2(a4) # 800c002 <_data_lma+0x80052d6>
    2388:	a3b8                	sb	a4,2(a5)
    238a:	bfe1                	j	2362 <ReadConfig+0x2a>

0000238c <ReadSavedMsg>:
    238c:	da5fd2ef          	jal	t0,130 <__riscv_save_0>
    2390:	478d                	li	a5,3
    2392:	04a7eb63          	bltu	a5,a0,23e8 <ReadSavedMsg+0x5c>
    2396:	000405b7          	lui	a1,0x40
    239a:	06858593          	addi	a1,a1,104 # 40068 <_data_lma+0x3933c>
    239e:	200017b7          	lui	a5,0x20001
    23a2:	67c78793          	addi	a5,a5,1660 # 2000167c <msg>
    23a6:	95aa                	add	a1,a1,a0
    23a8:	953e                	add	a0,a0,a5
    23aa:	2118                	lbu	a4,0(a0)
    23ac:	0cd00793          	li	a5,205
    23b0:	05a6                	slli	a1,a1,0x9
    23b2:	200014b7          	lui	s1,0x20001
    23b6:	04f71463          	bne	a4,a5,23fe <ReadSavedMsg+0x72>
    23ba:	1fc5a403          	lw	s0,508(a1)
    23be:	47c48513          	addi	a0,s1,1148 # 2000147c <inputBuff>
    23c2:	8622                	mv	a2,s0
    23c4:	8881ae23          	sw	s0,-1892(gp) # 2000025c <inputBuffSize>
    23c8:	3a9010ef          	jal	ra,3f70 <memcpy>
    23cc:	47c48913          	addi	s2,s1,1148
    23d0:	8991c783          	lbu	a5,-1895(gp) # 20000259 <config+0x1>
    23d4:	944a                	add	s0,s0,s2
    23d6:	00040023          	sb	zero,0(s0)
    23da:	e789                	bnez	a5,23e4 <ReadSavedMsg+0x58>
    23dc:	8a01a623          	sw	zero,-1876(gp) # 2000026c <sendCount>
    23e0:	165000ef          	jal	ra,2d44 <starSending>
    23e4:	d71fd06f          	j	154 <__riscv_restore_0>
    23e8:	479d                	li	a5,7
    23ea:	000405b7          	lui	a1,0x40
    23ee:	00a7e563          	bltu	a5,a0,23f8 <ReadSavedMsg+0x6c>
    23f2:	06c58593          	addi	a1,a1,108 # 4006c <_data_lma+0x39340>
    23f6:	b765                	j	239e <ReadSavedMsg+0x12>
    23f8:	07058593          	addi	a1,a1,112
    23fc:	b74d                	j	239e <ReadSavedMsg+0x12>
    23fe:	000075b7          	lui	a1,0x7
    2402:	bb458593          	addi	a1,a1,-1100 # 6bb4 <Font7x10+0x7c0>
    2406:	47c48513          	addi	a0,s1,1148
    240a:	57f010ef          	jal	ra,4188 <strcpy>
    240e:	47c48513          	addi	a0,s1,1148
    2412:	587010ef          	jal	ra,4198 <strlen>
    2416:	88a1ae23          	sw	a0,-1892(gp) # 2000025c <inputBuffSize>
    241a:	b7e9                	j	23e4 <ReadSavedMsg+0x58>

0000241c <WriteMsg>:
    241c:	cfbfd2ef          	jal	t0,116 <__riscv_save_4>
    2420:	842a                	mv	s0,a0
    2422:	40001537          	lui	a0,0x40001
    2426:	4785                	li	a5,1
    2428:	80010113          	addi	sp,sp,-2048
    242c:	4585                	li	a1,1
    242e:	80050513          	addi	a0,a0,-2048 # 40000800 <_eusrstack+0x1fffb800>
    2432:	8af18423          	sb	a5,-1880(gp) # 20000268 <saving>
    2436:	0c9010ef          	jal	ra,3cfe <TIM_Cmd>
    243a:	e000e7b7          	lui	a5,0xe000e
    243e:	6711                	lui	a4,0x4
    2440:	10e7a223          	sw	a4,260(a5) # e000e104 <_eusrstack+0xc0009104>
    2444:	478d                	li	a5,3
    2446:	0800d9b7          	lui	s3,0x800d
    244a:	0087f963          	bgeu	a5,s0,245c <WriteMsg+0x40>
    244e:	479d                	li	a5,7
    2450:	0800e9b7          	lui	s3,0x800e
    2454:	0087f463          	bgeu	a5,s0,245c <WriteMsg+0x40>
    2458:	0800f9b7          	lui	s3,0x800f
    245c:	6605                	lui	a2,0x1
    245e:	85ce                	mv	a1,s3
    2460:	80060613          	addi	a2,a2,-2048 # 800 <__stack_size>
    2464:	850a                	mv	a0,sp
    2466:	30b010ef          	jal	ra,3f70 <memcpy>
    246a:	1d8010ef          	jal	ra,3642 <FLASH_Unlock>
    246e:	03100513          	li	a0,49
    2472:	1f8010ef          	jal	ra,366a <FLASH_ClearFlag>
    2476:	854e                	mv	a0,s3
    2478:	236010ef          	jal	ra,36ae <FLASH_ErasePage>
    247c:	470d                	li	a4,3
    247e:	200015b7          	lui	a1,0x20001
    2482:	06876a63          	bltu	a4,s0,24f6 <WriteMsg+0xda>
    2486:	89c1aa03          	lw	s4,-1892(gp) # 2000025c <inputBuffSize>
    248a:	00941493          	slli	s1,s0,0x9
    248e:	8652                	mv	a2,s4
    2490:	00910533          	add	a0,sp,s1
    2494:	47c58593          	addi	a1,a1,1148 # 2000147c <inputBuff>
    2498:	2d9010ef          	jal	ra,3f70 <memcpy>
    249c:	6785                	lui	a5,0x1
    249e:	80078793          	addi	a5,a5,-2048 # 800 <__stack_size>
    24a2:	978a                	add	a5,a5,sp
    24a4:	94be                	add	s1,s1,a5
    24a6:	6605                	lui	a2,0x1
    24a8:	80060613          	addi	a2,a2,-2048 # 800 <__stack_size>
    24ac:	858a                	mv	a1,sp
    24ae:	9f44ae23          	sw	s4,-1540(s1)
    24b2:	854e                	mv	a0,s3
    24b4:	28a010ef          	jal	ra,373e <FLASH_ROM_WRITE>
    24b8:	1a4010ef          	jal	ra,365c <FLASH_Lock>
    24bc:	200017b7          	lui	a5,0x20001
    24c0:	67c78793          	addi	a5,a5,1660 # 2000167c <msg>
    24c4:	943e                	add	s0,s0,a5
    24c6:	fcd00793          	li	a5,-51
    24ca:	a01c                	sb	a5,0(s0)
    24cc:	db7ff0ef          	jal	ra,2282 <WriteConfig>
    24d0:	40001537          	lui	a0,0x40001
    24d4:	4581                	li	a1,0
    24d6:	80050513          	addi	a0,a0,-2048 # 40000800 <_eusrstack+0x1fffb800>
    24da:	025010ef          	jal	ra,3cfe <TIM_Cmd>
    24de:	e000e7b7          	lui	a5,0xe000e
    24e2:	6711                	lui	a4,0x4
    24e4:	18e7a223          	sw	a4,388(a5) # e000e184 <_eusrstack+0xc0009184>
    24e8:	8a018423          	sb	zero,-1880(gp) # 20000268 <saving>
    24ec:	7f010113          	addi	sp,sp,2032
    24f0:	0141                	addi	sp,sp,16
    24f2:	c59fd06f          	j	14a <__riscv_restore_4>
    24f6:	89c1aa03          	lw	s4,-1892(gp) # 2000025c <inputBuffSize>
    24fa:	479d                	li	a5,7
    24fc:	ffc40493          	addi	s1,s0,-4
    2500:	0087f463          	bgeu	a5,s0,2508 <WriteMsg+0xec>
    2504:	ff840493          	addi	s1,s0,-8
    2508:	04a6                	slli	s1,s1,0x9
    250a:	b751                	j	248e <WriteMsg+0x72>

0000250c <DispWelcome>:
    250c:	c25fd2ef          	jal	t0,130 <__riscv_save_0>
    2510:	45a9                	li	a1,10
    2512:	4529                	li	a0,10
    2514:	9bbff0ef          	jal	ra,1ece <SSD1306_GotoXY>
    2518:	20000437          	lui	s0,0x20000
    251c:	00007537          	lui	a0,0x7
    2520:	4605                	li	a2,1
    2522:	1c440593          	addi	a1,s0,452 # 200001c4 <Font_11x18>
    2526:	b9450513          	addi	a0,a0,-1132 # 6b94 <Font7x10+0x7a0>
    252a:	a3fff0ef          	jal	ra,1f68 <SSD1306_Puts>
    252e:	45f9                	li	a1,30
    2530:	4529                	li	a0,10
    2532:	99dff0ef          	jal	ra,1ece <SSD1306_GotoXY>
    2536:	00007537          	lui	a0,0x7
    253a:	4605                	li	a2,1
    253c:	1c440593          	addi	a1,s0,452
    2540:	b9850513          	addi	a0,a0,-1128 # 6b98 <Font7x10+0x7a4>
    2544:	a25ff0ef          	jal	ra,1f68 <SSD1306_Puts>
    2548:	03200593          	li	a1,50
    254c:	4551                	li	a0,20
    254e:	981ff0ef          	jal	ra,1ece <SSD1306_GotoXY>
    2552:	00007537          	lui	a0,0x7
    2556:	4605                	li	a2,1
    2558:	80c18593          	addi	a1,gp,-2036 # 200001cc <Font_7x10>
    255c:	ba450513          	addi	a0,a0,-1116 # 6ba4 <Font7x10+0x7b0>
    2560:	a09ff0ef          	jal	ra,1f68 <SSD1306_Puts>
    2564:	8c1ff0ef          	jal	ra,1e24 <SSD1306_UpdateScreen>
    2568:	bedfd06f          	j	154 <__riscv_restore_0>

0000256c <Disp>:
    256c:	babfd2ef          	jal	t0,116 <__riscv_save_4>
    2570:	7179                	addi	sp,sp,-48
    2572:	4501                	li	a0,0
    2574:	8f5ff0ef          	jal	ra,1e68 <SSD1306_Fill>
    2578:	4581                	li	a1,0
    257a:	4501                	li	a0,0
    257c:	953ff0ef          	jal	ra,1ece <SSD1306_GotoXY>
    2580:	89818793          	addi	a5,gp,-1896 # 20000258 <config>
    2584:	00278603          	lb	a2,2(a5)
    2588:	000075b7          	lui	a1,0x7
    258c:	b6058593          	addi	a1,a1,-1184 # 6b60 <Font7x10+0x76c>
    2590:	0868                	addi	a0,sp,28
    2592:	3b1010ef          	jal	ra,4142 <siprintf>
    2596:	4605                	li	a2,1
    2598:	80c18593          	addi	a1,gp,-2036 # 200001cc <Font_7x10>
    259c:	0868                	addi	a0,sp,28
    259e:	9cbff0ef          	jal	ra,1f68 <SSD1306_Puts>
    25a2:	8981c783          	lbu	a5,-1896(gp) # 20000258 <config>
    25a6:	89818493          	addi	s1,gp,-1896 # 20000258 <config>
    25aa:	cf99                	beqz	a5,25c8 <Disp+0x5c>
    25ac:	4581                	li	a1,0
    25ae:	07100513          	li	a0,113
    25b2:	91dff0ef          	jal	ra,1ece <SSD1306_GotoXY>
    25b6:	00007537          	lui	a0,0x7
    25ba:	4605                	li	a2,1
    25bc:	80c18593          	addi	a1,gp,-2036 # 200001cc <Font_7x10>
    25c0:	b6850513          	addi	a0,a0,-1176 # 6b68 <Font7x10+0x774>
    25c4:	9a5ff0ef          	jal	ra,1f68 <SSD1306_Puts>
    25c8:	4581                	li	a1,0
    25ca:	02a00513          	li	a0,42
    25ce:	901ff0ef          	jal	ra,1ece <SSD1306_GotoXY>
    25d2:	8ac1a603          	lw	a2,-1876(gp) # 2000026c <sendCount>
    25d6:	000075b7          	lui	a1,0x7
    25da:	b6c58593          	addi	a1,a1,-1172 # 6b6c <Font7x10+0x778>
    25de:	0868                	addi	a0,sp,28
    25e0:	363010ef          	jal	ra,4142 <siprintf>
    25e4:	4605                	li	a2,1
    25e6:	80c18593          	addi	a1,gp,-2036 # 200001cc <Font_7x10>
    25ea:	0868                	addi	a0,sp,28
    25ec:	97dff0ef          	jal	ra,1f68 <SSD1306_Puts>
    25f0:	4581                	li	a1,0
    25f2:	04d00513          	li	a0,77
    25f6:	8d9ff0ef          	jal	ra,1ece <SSD1306_GotoXY>
    25fa:	8b01c783          	lbu	a5,-1872(gp) # 20000270 <stge>
    25fe:	4705                	li	a4,1
    2600:	000075b7          	lui	a1,0x7
    2604:	10e79863          	bne	a5,a4,2714 <Disp+0x1a8>
    2608:	3098                	lbu	a4,1(s1)
    260a:	10f71563          	bne	a4,a5,2714 <Disp+0x1a8>
    260e:	8a41a603          	lw	a2,-1884(gp) # 20000264 <outputBuffSize>
    2612:	b7458593          	addi	a1,a1,-1164 # 6b74 <Font7x10+0x780>
    2616:	0868                	addi	a0,sp,28
    2618:	32b010ef          	jal	ra,4142 <siprintf>
    261c:	4605                	li	a2,1
    261e:	80c18593          	addi	a1,gp,-2036 # 200001cc <Font_7x10>
    2622:	0868                	addi	a0,sp,28
    2624:	945ff0ef          	jal	ra,1f68 <SSD1306_Puts>
    2628:	8a01c783          	lbu	a5,-1888(gp) # 20000260 <keyboard_in>
    262c:	cf99                	beqz	a5,264a <Disp+0xde>
    262e:	4581                	li	a1,0
    2630:	07800513          	li	a0,120
    2634:	89bff0ef          	jal	ra,1ece <SSD1306_GotoXY>
    2638:	00007537          	lui	a0,0x7
    263c:	4605                	li	a2,1
    263e:	80c18593          	addi	a1,gp,-2036 # 200001cc <Font_7x10>
    2642:	b7c50513          	addi	a0,a0,-1156 # 6b7c <Font7x10+0x788>
    2646:	923ff0ef          	jal	ra,1f68 <SSD1306_Puts>
    264a:	309c                	lbu	a5,1(s1)
    264c:	00007937          	lui	s2,0x7
    2650:	200014b7          	lui	s1,0x20001
    2654:	4705                	li	a4,1
    2656:	20078063          	beqz	a5,2856 <Disp+0x2ea>
    265a:	04000693          	li	a3,64
    265e:	04000613          	li	a2,64
    2662:	45a9                	li	a1,10
    2664:	04000513          	li	a0,64
    2668:	92bff0ef          	jal	ra,1f92 <SSD1306_DrawLine>
    266c:	4705                	li	a4,1
    266e:	04000693          	li	a3,64
    2672:	03f00613          	li	a2,63
    2676:	45a9                	li	a1,10
    2678:	03f00513          	li	a0,63
    267c:	917ff0ef          	jal	ra,1f92 <SSD1306_DrawLine>
    2680:	4705                	li	a4,1
    2682:	46a9                	li	a3,10
    2684:	08000613          	li	a2,128
    2688:	45a9                	li	a1,10
    268a:	4501                	li	a0,0
    268c:	907ff0ef          	jal	ra,1f92 <SSD1306_DrawLine>
    2690:	45ad                	li	a1,11
    2692:	4501                	li	a0,0
    2694:	83bff0ef          	jal	ra,1ece <SSD1306_GotoXY>
    2698:	4601                	li	a2,0
    269a:	80c18593          	addi	a1,gp,-2036 # 200001cc <Font_7x10>
    269e:	b8090513          	addi	a0,s2,-1152 # 6b80 <Font7x10+0x78c>
    26a2:	8c7ff0ef          	jal	ra,1f68 <SSD1306_Puts>
    26a6:	47c48513          	addi	a0,s1,1148 # 2000147c <inputBuff>
    26aa:	2ef010ef          	jal	ra,4198 <strlen>
    26ae:	4925                	li	s2,9
    26b0:	06a96563          	bltu	s2,a0,271a <Disp+0x1ae>
    26b4:	45d9                	li	a1,22
    26b6:	4501                	li	a0,0
    26b8:	817ff0ef          	jal	ra,1ece <SSD1306_GotoXY>
    26bc:	4605                	li	a2,1
    26be:	80c18593          	addi	a1,gp,-2036 # 200001cc <Font_7x10>
    26c2:	47c48513          	addi	a0,s1,1148
    26c6:	8a3ff0ef          	jal	ra,1f68 <SSD1306_Puts>
    26ca:	45ad                	li	a1,11
    26cc:	04000513          	li	a0,64
    26d0:	ffeff0ef          	jal	ra,1ece <SSD1306_GotoXY>
    26d4:	00007537          	lui	a0,0x7
    26d8:	4601                	li	a2,0
    26da:	80c18593          	addi	a1,gp,-2036 # 200001cc <Font_7x10>
    26de:	b8850513          	addi	a0,a0,-1144 # 6b88 <Font7x10+0x794>
    26e2:	887ff0ef          	jal	ra,1f68 <SSD1306_Puts>
    26e6:	200014b7          	lui	s1,0x20001
    26ea:	68848513          	addi	a0,s1,1672 # 20001688 <outputBuff>
    26ee:	2ab010ef          	jal	ra,4198 <strlen>
    26f2:	47a5                	li	a5,9
    26f4:	8a26                	mv	s4,s1
    26f6:	0ea7eb63          	bltu	a5,a0,27ec <Disp+0x280>
    26fa:	45d9                	li	a1,22
    26fc:	04000513          	li	a0,64
    2700:	fceff0ef          	jal	ra,1ece <SSD1306_GotoXY>
    2704:	4605                	li	a2,1
    2706:	80c18593          	addi	a1,gp,-2036 # 200001cc <Font_7x10>
    270a:	68848513          	addi	a0,s1,1672
    270e:	85bff0ef          	jal	ra,1f68 <SSD1306_Puts>
    2712:	a22d                	j	283c <Disp+0x2d0>
    2714:	89c1a603          	lw	a2,-1892(gp) # 2000025c <inputBuffSize>
    2718:	bded                	j	2612 <Disp+0xa6>
    271a:	02300793          	li	a5,35
    271e:	06a7e263          	bltu	a5,a0,2782 <Disp+0x216>
    2722:	47c48913          	addi	s2,s1,1148
    2726:	4981                	li	s3,0
    2728:	4a25                	li	s4,9
    272a:	4aa9                	li	s5,10
    272c:	854a                	mv	a0,s2
    272e:	26b010ef          	jal	ra,4198 <strlen>
    2732:	04aa6063          	bltu	s4,a0,2772 <Disp+0x206>
    2736:	85ca                	mv	a1,s2
    2738:	0868                	addi	a0,sp,28
    273a:	24f010ef          	jal	ra,4188 <strcpy>
    273e:	035985b3          	mul	a1,s3,s5
    2742:	4501                	li	a0,0
    2744:	0985                	addi	s3,s3,1
    2746:	0925                	addi	s2,s2,9
    2748:	05d9                	addi	a1,a1,22
    274a:	05c2                	slli	a1,a1,0x10
    274c:	81c1                	srli	a1,a1,0x10
    274e:	f80ff0ef          	jal	ra,1ece <SSD1306_GotoXY>
    2752:	4605                	li	a2,1
    2754:	80c18593          	addi	a1,gp,-2036 # 200001cc <Font_7x10>
    2758:	0868                	addi	a0,sp,28
    275a:	80fff0ef          	jal	ra,1f68 <SSD1306_Puts>
    275e:	47c48513          	addi	a0,s1,1148
    2762:	237010ef          	jal	ra,4198 <strlen>
    2766:	03455533          	divu	a0,a0,s4
    276a:	0505                	addi	a0,a0,1
    276c:	fca9e0e3          	bltu	s3,a0,272c <Disp+0x1c0>
    2770:	bfa9                	j	26ca <Disp+0x15e>
    2772:	4625                	li	a2,9
    2774:	85ca                	mv	a1,s2
    2776:	0868                	addi	a0,sp,28
    2778:	7f8010ef          	jal	ra,3f70 <memcpy>
    277c:	020102a3          	sb	zero,37(sp)
    2780:	bf7d                	j	273e <Disp+0x1d2>
    2782:	03255533          	divu	a0,a0,s2
    2786:	49d9                	li	s3,22
    2788:	4a25                	li	s4,9
    278a:	ffd50913          	addi	s2,a0,-3
    278e:	47c48513          	addi	a0,s1,1148
    2792:	207010ef          	jal	ra,4198 <strlen>
    2796:	03455533          	divu	a0,a0,s4
    279a:	0505                	addi	a0,a0,1
    279c:	f2a977e3          	bgeu	s2,a0,26ca <Disp+0x15e>
    27a0:	034905b3          	mul	a1,s2,s4
    27a4:	47c48793          	addi	a5,s1,1148
    27a8:	95be                	add	a1,a1,a5
    27aa:	852e                	mv	a0,a1
    27ac:	c62e                	sw	a1,12(sp)
    27ae:	1eb010ef          	jal	ra,4198 <strlen>
    27b2:	45b2                	lw	a1,12(sp)
    27b4:	02aa6563          	bltu	s4,a0,27de <Disp+0x272>
    27b8:	0868                	addi	a0,sp,28
    27ba:	1cf010ef          	jal	ra,4188 <strcpy>
    27be:	85ce                	mv	a1,s3
    27c0:	4501                	li	a0,0
    27c2:	f0cff0ef          	jal	ra,1ece <SSD1306_GotoXY>
    27c6:	09a9                	addi	s3,s3,10
    27c8:	4605                	li	a2,1
    27ca:	80c18593          	addi	a1,gp,-2036 # 200001cc <Font_7x10>
    27ce:	0868                	addi	a0,sp,28
    27d0:	09c2                	slli	s3,s3,0x10
    27d2:	f96ff0ef          	jal	ra,1f68 <SSD1306_Puts>
    27d6:	0905                	addi	s2,s2,1
    27d8:	0109d993          	srli	s3,s3,0x10
    27dc:	bf4d                	j	278e <Disp+0x222>
    27de:	4625                	li	a2,9
    27e0:	0868                	addi	a0,sp,28
    27e2:	78e010ef          	jal	ra,3f70 <memcpy>
    27e6:	020102a3          	sb	zero,37(sp)
    27ea:	bfd1                	j	27be <Disp+0x252>
    27ec:	68848493          	addi	s1,s1,1672
    27f0:	4901                	li	s2,0
    27f2:	49a5                	li	s3,9
    27f4:	4aa9                	li	s5,10
    27f6:	8526                	mv	a0,s1
    27f8:	1a1010ef          	jal	ra,4198 <strlen>
    27fc:	04a9e563          	bltu	s3,a0,2846 <Disp+0x2da>
    2800:	85a6                	mv	a1,s1
    2802:	0868                	addi	a0,sp,28
    2804:	185010ef          	jal	ra,4188 <strcpy>
    2808:	035905b3          	mul	a1,s2,s5
    280c:	04000513          	li	a0,64
    2810:	0905                	addi	s2,s2,1
    2812:	04a5                	addi	s1,s1,9
    2814:	05d9                	addi	a1,a1,22
    2816:	05c2                	slli	a1,a1,0x10
    2818:	81c1                	srli	a1,a1,0x10
    281a:	eb4ff0ef          	jal	ra,1ece <SSD1306_GotoXY>
    281e:	4605                	li	a2,1
    2820:	80c18593          	addi	a1,gp,-2036 # 200001cc <Font_7x10>
    2824:	0868                	addi	a0,sp,28
    2826:	f42ff0ef          	jal	ra,1f68 <SSD1306_Puts>
    282a:	688a0513          	addi	a0,s4,1672
    282e:	16b010ef          	jal	ra,4198 <strlen>
    2832:	03355533          	divu	a0,a0,s3
    2836:	0505                	addi	a0,a0,1
    2838:	faa96fe3          	bltu	s2,a0,27f6 <Disp+0x28a>
    283c:	de8ff0ef          	jal	ra,1e24 <SSD1306_UpdateScreen>
    2840:	6145                	addi	sp,sp,48
    2842:	909fd06f          	j	14a <__riscv_restore_4>
    2846:	4625                	li	a2,9
    2848:	85a6                	mv	a1,s1
    284a:	0868                	addi	a0,sp,28
    284c:	724010ef          	jal	ra,3f70 <memcpy>
    2850:	020102a3          	sb	zero,37(sp)
    2854:	bf55                	j	2808 <Disp+0x29c>
    2856:	46a9                	li	a3,10
    2858:	08000613          	li	a2,128
    285c:	45a9                	li	a1,10
    285e:	4501                	li	a0,0
    2860:	f32ff0ef          	jal	ra,1f92 <SSD1306_DrawLine>
    2864:	45ad                	li	a1,11
    2866:	4501                	li	a0,0
    2868:	e66ff0ef          	jal	ra,1ece <SSD1306_GotoXY>
    286c:	4601                	li	a2,0
    286e:	80c18593          	addi	a1,gp,-2036 # 200001cc <Font_7x10>
    2872:	b8090513          	addi	a0,s2,-1152
    2876:	ef2ff0ef          	jal	ra,1f68 <SSD1306_Puts>
    287a:	47c48513          	addi	a0,s1,1148
    287e:	11b010ef          	jal	ra,4198 <strlen>
    2882:	4949                	li	s2,18
    2884:	00a96c63          	bltu	s2,a0,289c <Disp+0x330>
    2888:	45d9                	li	a1,22
    288a:	4501                	li	a0,0
    288c:	e42ff0ef          	jal	ra,1ece <SSD1306_GotoXY>
    2890:	4605                	li	a2,1
    2892:	80c18593          	addi	a1,gp,-2036 # 200001cc <Font_7x10>
    2896:	47c48513          	addi	a0,s1,1148
    289a:	bd95                	j	270e <Disp+0x1a2>
    289c:	04800793          	li	a5,72
    28a0:	06a7e263          	bltu	a5,a0,2904 <Disp+0x398>
    28a4:	47c48913          	addi	s2,s1,1148
    28a8:	4981                	li	s3,0
    28aa:	4a49                	li	s4,18
    28ac:	4aa9                	li	s5,10
    28ae:	854a                	mv	a0,s2
    28b0:	0e9010ef          	jal	ra,4198 <strlen>
    28b4:	04aa6063          	bltu	s4,a0,28f4 <Disp+0x388>
    28b8:	85ca                	mv	a1,s2
    28ba:	0868                	addi	a0,sp,28
    28bc:	0cd010ef          	jal	ra,4188 <strcpy>
    28c0:	035985b3          	mul	a1,s3,s5
    28c4:	4501                	li	a0,0
    28c6:	0985                	addi	s3,s3,1
    28c8:	0949                	addi	s2,s2,18
    28ca:	05d9                	addi	a1,a1,22
    28cc:	05c2                	slli	a1,a1,0x10
    28ce:	81c1                	srli	a1,a1,0x10
    28d0:	dfeff0ef          	jal	ra,1ece <SSD1306_GotoXY>
    28d4:	4605                	li	a2,1
    28d6:	80c18593          	addi	a1,gp,-2036 # 200001cc <Font_7x10>
    28da:	0868                	addi	a0,sp,28
    28dc:	e8cff0ef          	jal	ra,1f68 <SSD1306_Puts>
    28e0:	47c48513          	addi	a0,s1,1148
    28e4:	0b5010ef          	jal	ra,4198 <strlen>
    28e8:	03455533          	divu	a0,a0,s4
    28ec:	0505                	addi	a0,a0,1
    28ee:	fca9e0e3          	bltu	s3,a0,28ae <Disp+0x342>
    28f2:	b7a9                	j	283c <Disp+0x2d0>
    28f4:	4649                	li	a2,18
    28f6:	85ca                	mv	a1,s2
    28f8:	0868                	addi	a0,sp,28
    28fa:	676010ef          	jal	ra,3f70 <memcpy>
    28fe:	02010723          	sb	zero,46(sp)
    2902:	bf7d                	j	28c0 <Disp+0x354>
    2904:	03255533          	divu	a0,a0,s2
    2908:	49d9                	li	s3,22
    290a:	4a49                	li	s4,18
    290c:	ffd50913          	addi	s2,a0,-3
    2910:	47c48513          	addi	a0,s1,1148
    2914:	085010ef          	jal	ra,4198 <strlen>
    2918:	03455533          	divu	a0,a0,s4
    291c:	0505                	addi	a0,a0,1
    291e:	f0a97fe3          	bgeu	s2,a0,283c <Disp+0x2d0>
    2922:	034905b3          	mul	a1,s2,s4
    2926:	47c48793          	addi	a5,s1,1148
    292a:	95be                	add	a1,a1,a5
    292c:	852e                	mv	a0,a1
    292e:	c62e                	sw	a1,12(sp)
    2930:	069010ef          	jal	ra,4198 <strlen>
    2934:	45b2                	lw	a1,12(sp)
    2936:	02aa6563          	bltu	s4,a0,2960 <Disp+0x3f4>
    293a:	0868                	addi	a0,sp,28
    293c:	04d010ef          	jal	ra,4188 <strcpy>
    2940:	85ce                	mv	a1,s3
    2942:	4501                	li	a0,0
    2944:	d8aff0ef          	jal	ra,1ece <SSD1306_GotoXY>
    2948:	09a9                	addi	s3,s3,10
    294a:	4605                	li	a2,1
    294c:	80c18593          	addi	a1,gp,-2036 # 200001cc <Font_7x10>
    2950:	0868                	addi	a0,sp,28
    2952:	09c2                	slli	s3,s3,0x10
    2954:	e14ff0ef          	jal	ra,1f68 <SSD1306_Puts>
    2958:	0905                	addi	s2,s2,1
    295a:	0109d993          	srli	s3,s3,0x10
    295e:	bf4d                	j	2910 <Disp+0x3a4>
    2960:	4649                	li	a2,18
    2962:	0868                	addi	a0,sp,28
    2964:	60c010ef          	jal	ra,3f70 <memcpy>
    2968:	02010723          	sb	zero,46(sp)
    296c:	bfd1                	j	2940 <Disp+0x3d4>

0000296e <TIM4_Init>:
    296e:	fc2fd2ef          	jal	t0,130 <__riscv_save_0>
    2972:	1101                	addi	sp,sp,-32
    2974:	84aa                	mv	s1,a0
    2976:	842e                	mv	s0,a1
    2978:	4511                	li	a0,4
    297a:	4585                	li	a1,1
    297c:	ca02                	sw	zero,20(sp)
    297e:	cc02                	sw	zero,24(sp)
    2980:	00011e23          	sh	zero,28(sp)
    2984:	c602                	sw	zero,12(sp)
    2986:	c802                	sw	zero,16(sp)
    2988:	2ee010ef          	jal	ra,3c76 <RCC_APB1PeriphClockCmd>
    298c:	82e0                	sh	s0,20(sp)
    298e:	40001437          	lui	s0,0x40001
    2992:	084c                	addi	a1,sp,20
    2994:	80040513          	addi	a0,s0,-2048 # 40000800 <_eusrstack+0x1fffb800>
    2998:	84e4                	sh	s1,24(sp)
    299a:	00011d23          	sh	zero,26(sp)
    299e:	00011b23          	sh	zero,22(sp)
    29a2:	2f2010ef          	jal	ra,3c94 <TIM_TimeBaseInit>
    29a6:	4605                	li	a2,1
    29a8:	4585                	li	a1,1
    29aa:	80040513          	addi	a0,s0,-2048
    29ae:	368010ef          	jal	ra,3d16 <TIM_ITConfig>
    29b2:	32e00793          	li	a5,814
    29b6:	867c                	sh	a5,12(sp)
    29b8:	4789                	li	a5,2
    29ba:	875c                	sb	a5,14(sp)
    29bc:	0068                	addi	a0,sp,12
    29be:	4785                	li	a5,1
    29c0:	c83e                	sw	a5,16(sp)
    29c2:	14c010ef          	jal	ra,3b0e <NVIC_Init>
    29c6:	6105                	addi	sp,sp,32
    29c8:	f8cfd06f          	j	154 <__riscv_restore_0>

000029cc <main>:
    29cc:	f3cfd2ef          	jal	t0,108 <__riscv_save_10>
    29d0:	4505                	li	a0,1
    29d2:	136010ef          	jal	ra,3b08 <NVIC_PriorityGroupConfig>
    29d6:	349000ef          	jal	ra,351e <SystemCoreClockUpdate>
    29da:	42a010ef          	jal	ra,3e04 <Delay_Init>
    29de:	6571                	lui	a0,0x1c
    29e0:	20050513          	addi	a0,a0,512 # 1c200 <_data_lma+0x154d4>
    29e4:	4b2010ef          	jal	ra,3e96 <USART_Printf_Init>
    29e8:	8141a583          	lw	a1,-2028(gp) # 200001d4 <SystemCoreClock>
    29ec:	00007537          	lui	a0,0x7
    29f0:	bc450513          	addi	a0,a0,-1084 # 6bc4 <Font7x10+0x7d0>
    29f4:	62e010ef          	jal	ra,4022 <iprintf>
    29f8:	441000ef          	jal	ra,3638 <DBGMCU_GetCHIPID>
    29fc:	85aa                	mv	a1,a0
    29fe:	00007537          	lui	a0,0x7
    2a02:	bd450513          	addi	a0,a0,-1068 # 6bd4 <Font7x10+0x7e0>
    2a06:	61c010ef          	jal	ra,4022 <iprintf>
    2a0a:	00007537          	lui	a0,0x7
    2a0e:	be450513          	addi	a0,a0,-1052 # 6be4 <Font7x10+0x7f0>
    2a12:	724010ef          	jal	ra,4136 <puts>
    2a16:	8141a783          	lw	a5,-2028(gp) # 200001d4 <SystemCoreClock>
    2a1a:	03c00593          	li	a1,60
    2a1e:	6485                	lui	s1,0x1
    2a20:	02f585b3          	mul	a1,a1,a5
    2a24:	000f47b7          	lui	a5,0xf4
    2a28:	24078793          	addi	a5,a5,576 # f4240 <_data_lma+0xed514>
    2a2c:	f9f48513          	addi	a0,s1,-97 # f9f <KB_SetReport+0x95>
    2a30:	02f5d5b3          	divu	a1,a1,a5
    2a34:	15fd                	addi	a1,a1,-1
    2a36:	05c2                	slli	a1,a1,0x10
    2a38:	81c1                	srli	a1,a1,0x10
    2a3a:	2a79                	jal	2bd8 <TIM2_Init>
    2a3c:	8141a583          	lw	a1,-2028(gp) # 200001d4 <SystemCoreClock>
    2a40:	3e800793          	li	a5,1000
    2a44:	4525                	li	a0,9
    2a46:	02f5d5b3          	divu	a1,a1,a5
    2a4a:	40011437          	lui	s0,0x40011
    2a4e:	c0040413          	addi	s0,s0,-1024 # 40010c00 <_eusrstack+0x2000bc00>
    2a52:	15fd                	addi	a1,a1,-1
    2a54:	05c2                	slli	a1,a1,0x10
    2a56:	81c1                	srli	a1,a1,0x10
    2a58:	fb0fd0ef          	jal	ra,208 <TIM3_Init>
    2a5c:	00007537          	lui	a0,0x7
    2a60:	c0c50513          	addi	a0,a0,-1012 # 6c0c <Font7x10+0x818>
    2a64:	6d2010ef          	jal	ra,4136 <puts>
    2a68:	fbaff0ef          	jal	ra,2222 <InitGPIOs>
    2a6c:	3e700593          	li	a1,999
    2a70:	f9f48513          	addi	a0,s1,-97
    2a74:	efbff0ef          	jal	ra,296e <TIM4_Init>
    2a78:	e70ff0ef          	jal	ra,20e8 <SSD1306_Init>
    2a7c:	a5dfe0ef          	jal	ra,14d8 <USBFS_RCC_Init>
    2a80:	4505                	li	a0,1
    2a82:	a99fe0ef          	jal	ra,151a <USBFS_Host_Init>
    2a86:	467d                	li	a2,31
    2a88:	4581                	li	a1,0
    2a8a:	61c18513          	addi	a0,gp,1564 # 20000fdc <RootHubDev>
    2a8e:	ed2fd0ef          	jal	ra,160 <memset>
    2a92:	20000537          	lui	a0,0x20000
    2a96:	53200613          	li	a2,1330
    2a9a:	4581                	li	a1,0
    2a9c:	6a850513          	addi	a0,a0,1704 # 200006a8 <HostCtl>
    2aa0:	ec0fd0ef          	jal	ra,160 <memset>
    2aa4:	895ff0ef          	jal	ra,2338 <ReadConfig>
    2aa8:	a65ff0ef          	jal	ra,250c <DispWelcome>
    2aac:	5dc00513          	li	a0,1500
    2ab0:	3b0010ef          	jal	ra,3e60 <Delay_Ms>
    2ab4:	89818b93          	addi	s7,gp,-1896 # 20000258 <config>
    2ab8:	6589                	lui	a1,0x2
    2aba:	8522                	mv	a0,s0
    2abc:	643000ef          	jal	ra,38fe <GPIO_ReadInputDataBit>
    2ac0:	8b118913          	addi	s2,gp,-1871 # 20000271 <key1>
    2ac4:	6591                	lui	a1,0x4
    2ac6:	00a90023          	sb	a0,0(s2)
    2aca:	8522                	mv	a0,s0
    2acc:	633000ef          	jal	ra,38fe <GPIO_ReadInputDataBit>
    2ad0:	8aa189a3          	sb	a0,-1869(gp) # 20000273 <key2>
    2ad4:	d74fe0ef          	jal	ra,1048 <USBH_MainDeal>
    2ad8:	a95ff0ef          	jal	ra,256c <Disp>
    2adc:	00094703          	lbu	a4,0(s2)
    2ae0:	4785                	li	a5,1
    2ae2:	8b118c13          	addi	s8,gp,-1871 # 20000271 <key1>
    2ae6:	8b318993          	addi	s3,gp,-1869 # 20000273 <key2>
    2aea:	8b218a13          	addi	s4,gp,-1870 # 20000272 <key1old>
    2aee:	00f71d63          	bne	a4,a5,2b08 <main+0x13c>
    2af2:	000a4783          	lbu	a5,0(s4)
    2af6:	eb89                	bnez	a5,2b08 <main+0x13c>
    2af8:	8981c703          	lbu	a4,-1896(gp) # 20000258 <config>
    2afc:	4785                	li	a5,1
    2afe:	8f99                	sub	a5,a5,a4
    2b00:	88f18c23          	sb	a5,-1896(gp) # 20000258 <config>
    2b04:	f7eff0ef          	jal	ra,2282 <WriteConfig>
    2b08:	0009c703          	lbu	a4,0(s3) # 800f000 <_data_lma+0x80082d4>
    2b0c:	4785                	li	a5,1
    2b0e:	8b418913          	addi	s2,gp,-1868 # 20000274 <key2old>
    2b12:	04f71663          	bne	a4,a5,2b5e <main+0x192>
    2b16:	00094783          	lbu	a5,0(s2)
    2b1a:	e3b1                	bnez	a5,2b5e <main+0x192>
    2b1c:	001bc703          	lbu	a4,1(s7)
    2b20:	4785                	li	a5,1
    2b22:	8f99                	sub	a5,a5,a4
    2b24:	00fb80a3          	sb	a5,1(s7)
    2b28:	2c91                	jal	2d7c <endSending>
    2b2a:	20001537          	lui	a0,0x20001
    2b2e:	20000613          	li	a2,512
    2b32:	4581                	li	a1,0
    2b34:	47c50513          	addi	a0,a0,1148 # 2000147c <inputBuff>
    2b38:	8801ae23          	sw	zero,-1892(gp) # 2000025c <inputBuffSize>
    2b3c:	e24fd0ef          	jal	ra,160 <memset>
    2b40:	20001537          	lui	a0,0x20001
    2b44:	20000613          	li	a2,512
    2b48:	4581                	li	a1,0
    2b4a:	68850513          	addi	a0,a0,1672 # 20001688 <outputBuff>
    2b4e:	8a01a223          	sw	zero,-1884(gp) # 20000264 <outputBuffSize>
    2b52:	e0efd0ef          	jal	ra,160 <memset>
    2b56:	8a01a623          	sw	zero,-1876(gp) # 2000026c <sendCount>
    2b5a:	f28ff0ef          	jal	ra,2282 <WriteConfig>
    2b5e:	8a01c783          	lbu	a5,-1888(gp) # 20000260 <keyboard_in>
    2b62:	4605                	li	a2,1
    2b64:	e391                	bnez	a5,2b68 <main+0x19c>
    2b66:	4601                	li	a2,0
    2b68:	6585                	lui	a1,0x1
    2b6a:	8522                	mv	a0,s0
    2b6c:	5c7000ef          	jal	ra,3932 <GPIO_WriteBit>
    2b70:	8981c783          	lbu	a5,-1896(gp) # 20000258 <config>
    2b74:	e799                	bnez	a5,2b82 <main+0x1b6>
    2b76:	4601                	li	a2,0
    2b78:	20000593          	li	a1,512
    2b7c:	8522                	mv	a0,s0
    2b7e:	5b5000ef          	jal	ra,3932 <GPIO_WriteBit>
    2b82:	000c4783          	lbu	a5,0(s8)
    2b86:	00fa0023          	sb	a5,0(s4)
    2b8a:	0009c783          	lbu	a5,0(s3)
    2b8e:	00f90023          	sb	a5,0(s2)
    2b92:	b71d                	j	2ab8 <main+0xec>

00002b94 <TIM4_IRQHandler>:
    2b94:	1141                	addi	sp,sp,-16
    2b96:	c622                	sw	s0,12(sp)
    2b98:	40001437          	lui	s0,0x40001
    2b9c:	4585                	li	a1,1
    2b9e:	80040513          	addi	a0,s0,-2048 # 40000800 <_eusrstack+0x1fffb800>
    2ba2:	186010ef          	jal	ra,3d28 <TIM_GetITStatus>
    2ba6:	c50d                	beqz	a0,2bd0 <TIM4_IRQHandler+0x3c>
    2ba8:	80040513          	addi	a0,s0,-2048
    2bac:	4585                	li	a1,1
    2bae:	192010ef          	jal	ra,3d40 <TIM_ClearITPendingBit>
    2bb2:	40011437          	lui	s0,0x40011
    2bb6:	6585                	lui	a1,0x1
    2bb8:	c0040513          	addi	a0,s0,-1024 # 40010c00 <_eusrstack+0x2000bc00>
    2bbc:	55d000ef          	jal	ra,3918 <GPIO_ReadOutputDataBit>
    2bc0:	4601                	li	a2,0
    2bc2:	e111                	bnez	a0,2bc6 <TIM4_IRQHandler+0x32>
    2bc4:	4605                	li	a2,1
    2bc6:	6585                	lui	a1,0x1
    2bc8:	c0040513          	addi	a0,s0,-1024
    2bcc:	567000ef          	jal	ra,3932 <GPIO_WriteBit>
    2bd0:	4432                	lw	s0,12(sp)
    2bd2:	0141                	addi	sp,sp,16
    2bd4:	30200073          	mret

00002bd8 <TIM2_Init>:
    2bd8:	d58fd2ef          	jal	t0,130 <__riscv_save_0>
    2bdc:	1101                	addi	sp,sp,-32
    2bde:	842e                	mv	s0,a1
    2be0:	84aa                	mv	s1,a0
    2be2:	4585                	li	a1,1
    2be4:	4505                	li	a0,1
    2be6:	ca02                	sw	zero,20(sp)
    2be8:	cc02                	sw	zero,24(sp)
    2bea:	00011e23          	sh	zero,28(sp)
    2bee:	c602                	sw	zero,12(sp)
    2bf0:	c802                	sw	zero,16(sp)
    2bf2:	084010ef          	jal	ra,3c76 <RCC_APB1PeriphClockCmd>
    2bf6:	084c                	addi	a1,sp,20
    2bf8:	40000537          	lui	a0,0x40000
    2bfc:	84e4                	sh	s1,24(sp)
    2bfe:	82e0                	sh	s0,20(sp)
    2c00:	00011d23          	sh	zero,26(sp)
    2c04:	00011b23          	sh	zero,22(sp)
    2c08:	08c010ef          	jal	ra,3c94 <TIM_TimeBaseInit>
    2c0c:	4605                	li	a2,1
    2c0e:	4585                	li	a1,1
    2c10:	40000537          	lui	a0,0x40000
    2c14:	102010ef          	jal	ra,3d16 <TIM_ITConfig>
    2c18:	12c00793          	li	a5,300
    2c1c:	867c                	sh	a5,12(sp)
    2c1e:	4789                	li	a5,2
    2c20:	875c                	sb	a5,14(sp)
    2c22:	0068                	addi	a0,sp,12
    2c24:	4785                	li	a5,1
    2c26:	c83e                	sw	a5,16(sp)
    2c28:	6e7000ef          	jal	ra,3b0e <NVIC_Init>
    2c2c:	6105                	addi	sp,sp,32
    2c2e:	d26fd06f          	j	154 <__riscv_restore_0>

00002c32 <TIM2_ChangBase>:
    2c32:	cfefd2ef          	jal	t0,130 <__riscv_save_0>
    2c36:	8b01c703          	lbu	a4,-1872(gp) # 20000270 <stge>
    2c3a:	1141                	addi	sp,sp,-16
    2c3c:	892a                	mv	s2,a0
    2c3e:	84ae                	mv	s1,a1
    2c40:	843e                	mv	s0,a5
    2c42:	cb19                	beqz	a4,2c58 <TIM2_ChangBase+0x26>
    2c44:	e000e7b7          	lui	a5,0xe000e
    2c48:	6705                	lui	a4,0x1
    2c4a:	18e7a223          	sw	a4,388(a5) # e000e184 <_eusrstack+0xc0009184>
    2c4e:	4581                	li	a1,0
    2c50:	40000537          	lui	a0,0x40000
    2c54:	0aa010ef          	jal	ra,3cfe <TIM_Cmd>
    2c58:	004c                	addi	a1,sp,4
    2c5a:	40000537          	lui	a0,0x40000
    2c5e:	00011323          	sh	zero,6(sp)
    2c62:	00011523          	sh	zero,10(sp)
    2c66:	00011623          	sh	zero,12(sp)
    2c6a:	01211423          	sh	s2,8(sp)
    2c6e:	8264                	sh	s1,4(sp)
    2c70:	024010ef          	jal	ra,3c94 <TIM_TimeBaseInit>
    2c74:	8b01c783          	lbu	a5,-1872(gp) # 20000270 <stge>
    2c78:	cb99                	beqz	a5,2c8e <TIM2_ChangBase+0x5c>
    2c7a:	4585                	li	a1,1
    2c7c:	40000537          	lui	a0,0x40000
    2c80:	07e010ef          	jal	ra,3cfe <TIM_Cmd>
    2c84:	e000e7b7          	lui	a5,0xe000e
    2c88:	6705                	lui	a4,0x1
    2c8a:	10e7a223          	sw	a4,260(a5) # e000e104 <_eusrstack+0xc0009104>
    2c8e:	0141                	addi	sp,sp,16
    2c90:	cc4fd06f          	j	154 <__riscv_restore_0>

00002c94 <add_wpm>:
    2c94:	c9cfd2ef          	jal	t0,130 <__riscv_save_0>
    2c98:	89818713          	addi	a4,gp,-1896 # 20000258 <config>
    2c9c:	2338                	lbu	a4,2(a4)
    2c9e:	89818793          	addi	a5,gp,-1896 # 20000258 <config>
    2ca2:	953a                	add	a0,a0,a4
    2ca4:	0562                	slli	a0,a0,0x18
    2ca6:	8561                	srai	a0,a0,0x18
    2ca8:	06300713          	li	a4,99
    2cac:	02a74e63          	blt	a4,a0,2ce8 <add_wpm+0x54>
    2cb0:	a3a8                	sb	a0,2(a5)
    2cb2:	8141a703          	lw	a4,-2028(gp) # 200001d4 <SystemCoreClock>
    2cb6:	00278783          	lb	a5,2(a5)
    2cba:	03c00593          	li	a1,60
    2cbe:	02e585b3          	mul	a1,a1,a4
    2cc2:	6731                	lui	a4,0xc
    2cc4:	35070713          	addi	a4,a4,848 # c350 <_data_lma+0x5624>
    2cc8:	6505                	lui	a0,0x1
    2cca:	f9f50513          	addi	a0,a0,-97 # f9f <KB_SetReport+0x95>
    2cce:	02e787b3          	mul	a5,a5,a4
    2cd2:	02f5d5b3          	divu	a1,a1,a5
    2cd6:	15fd                	addi	a1,a1,-1
    2cd8:	05c2                	slli	a1,a1,0x10
    2cda:	81c1                	srli	a1,a1,0x10
    2cdc:	f57ff0ef          	jal	ra,2c32 <TIM2_ChangBase>
    2ce0:	da2ff0ef          	jal	ra,2282 <WriteConfig>
    2ce4:	c70fd06f          	j	154 <__riscv_restore_0>
    2ce8:	a3b8                	sb	a4,2(a5)
    2cea:	b7e1                	j	2cb2 <add_wpm+0x1e>

00002cec <sub_wpm>:
    2cec:	c44fd2ef          	jal	t0,130 <__riscv_save_0>
    2cf0:	89818713          	addi	a4,gp,-1896 # 20000258 <config>
    2cf4:	2338                	lbu	a4,2(a4)
    2cf6:	89818793          	addi	a5,gp,-1896 # 20000258 <config>
    2cfa:	40a70533          	sub	a0,a4,a0
    2cfe:	0562                	slli	a0,a0,0x18
    2d00:	8561                	srai	a0,a0,0x18
    2d02:	02a05e63          	blez	a0,2d3e <sub_wpm+0x52>
    2d06:	a3a8                	sb	a0,2(a5)
    2d08:	8141a703          	lw	a4,-2028(gp) # 200001d4 <SystemCoreClock>
    2d0c:	00278783          	lb	a5,2(a5)
    2d10:	03c00593          	li	a1,60
    2d14:	02e585b3          	mul	a1,a1,a4
    2d18:	6731                	lui	a4,0xc
    2d1a:	35070713          	addi	a4,a4,848 # c350 <_data_lma+0x5624>
    2d1e:	6505                	lui	a0,0x1
    2d20:	f9f50513          	addi	a0,a0,-97 # f9f <KB_SetReport+0x95>
    2d24:	02e787b3          	mul	a5,a5,a4
    2d28:	02f5d5b3          	divu	a1,a1,a5
    2d2c:	15fd                	addi	a1,a1,-1
    2d2e:	05c2                	slli	a1,a1,0x10
    2d30:	81c1                	srli	a1,a1,0x10
    2d32:	f01ff0ef          	jal	ra,2c32 <TIM2_ChangBase>
    2d36:	d4cff0ef          	jal	ra,2282 <WriteConfig>
    2d3a:	c1afd06f          	j	154 <__riscv_restore_0>
    2d3e:	4705                	li	a4,1
    2d40:	a3b8                	sb	a4,2(a5)
    2d42:	b7d9                	j	2d08 <sub_wpm+0x1c>

00002d44 <starSending>:
    2d44:	8b01c783          	lbu	a5,-1872(gp) # 20000270 <stge>
    2d48:	eb8d                	bnez	a5,2d7a <starSending+0x36>
    2d4a:	be6fd2ef          	jal	t0,130 <__riscv_save_0>
    2d4e:	4785                	li	a5,1
    2d50:	8af18823          	sb	a5,-1872(gp) # 20000270 <stge>
    2d54:	88f18b23          	sb	a5,-1898(gp) # 20000256 <bufCovnMark>
    2d58:	8991c783          	lbu	a5,-1895(gp) # 20000259 <config+0x1>
    2d5c:	c399                	beqz	a5,2d62 <starSending+0x1e>
    2d5e:	8a01a623          	sw	zero,-1876(gp) # 2000026c <sendCount>
    2d62:	4585                	li	a1,1
    2d64:	40000537          	lui	a0,0x40000
    2d68:	797000ef          	jal	ra,3cfe <TIM_Cmd>
    2d6c:	e000e7b7          	lui	a5,0xe000e
    2d70:	6705                	lui	a4,0x1
    2d72:	10e7a223          	sw	a4,260(a5) # e000e104 <_eusrstack+0xc0009104>
    2d76:	bdefd06f          	j	154 <__riscv_restore_0>
    2d7a:	8082                	ret

00002d7c <endSending>:
    2d7c:	8b01c703          	lbu	a4,-1872(gp) # 20000270 <stge>
    2d80:	c321                	beqz	a4,2dc0 <endSending+0x44>
    2d82:	baefd2ef          	jal	t0,130 <__riscv_save_0>
    2d86:	6705                	lui	a4,0x1
    2d88:	8a018823          	sb	zero,-1872(gp) # 20000270 <stge>
    2d8c:	e000e7b7          	lui	a5,0xe000e
    2d90:	18e7a223          	sw	a4,388(a5) # e000e184 <_eusrstack+0xc0009184>
    2d94:	4581                	li	a1,0
    2d96:	40000537          	lui	a0,0x40000
    2d9a:	765000ef          	jal	ra,3cfe <TIM_Cmd>
    2d9e:	40011437          	lui	s0,0x40011
    2da2:	80040513          	addi	a0,s0,-2048 # 40010800 <_eusrstack+0x2000b800>
    2da6:	4601                	li	a2,0
    2da8:	4589                	li	a1,2
    2daa:	389000ef          	jal	ra,3932 <GPIO_WriteBit>
    2dae:	4601                	li	a2,0
    2db0:	20000593          	li	a1,512
    2db4:	c0040513          	addi	a0,s0,-1024
    2db8:	37b000ef          	jal	ra,3932 <GPIO_WriteBit>
    2dbc:	b98fd06f          	j	154 <__riscv_restore_0>
    2dc0:	8082                	ret

00002dc2 <bufCovn>:
    2dc2:	f9f50693          	addi	a3,a0,-97 # 3fffff9f <_eusrstack+0x1fffaf9f>
    2dc6:	20002737          	lui	a4,0x20002
    2dca:	0ff6f613          	andi	a2,a3,255
    2dce:	47e5                	li	a5,25
    2dd0:	88870713          	addi	a4,a4,-1912 # 20001888 <sendbuf>
    2dd4:	06c7eb63          	bltu	a5,a2,2e4a <bufCovn+0x88>
    2dd8:	00169793          	slli	a5,a3,0x1
    2ddc:	200006b7          	lui	a3,0x20000
    2de0:	0e068693          	addi	a3,a3,224 # 200000e0 <morse_code_map>
    2de4:	96be                	add	a3,a3,a5
    2de6:	0006c303          	lbu	t1,0(a3)
    2dea:	4781                	li	a5,0
    2dec:	4801                	li	a6,0
    2dee:	4e1d                	li	t3,7
    2df0:	4885                	li	a7,1
    2df2:	00178613          	addi	a2,a5,1
    2df6:	00684963          	blt	a6,t1,2e08 <bufCovn+0x46>
    2dfa:	973e                	add	a4,a4,a5
    2dfc:	00070023          	sb	zero,0(a4)
    2e00:	0785                	addi	a5,a5,1
    2e02:	8af1ae23          	sw	a5,-1860(gp) # 2000027c <sendBufLen>
    2e06:	8082                	ret
    2e08:	3288                	lbu	a0,1(a3)
    2e0a:	410e0eb3          	sub	t4,t3,a6
    2e0e:	00278593          	addi	a1,a5,2
    2e12:	41d55533          	sra	a0,a0,t4
    2e16:	8905                	andi	a0,a0,1
    2e18:	c115                	beqz	a0,2e3c <bufCovn+0x7a>
    2e1a:	95ba                	add	a1,a1,a4
    2e1c:	01158023          	sb	a7,0(a1) # 1000 <USBH_EnumHidDevice+0x5e>
    2e20:	963a                	add	a2,a2,a4
    2e22:	01160023          	sb	a7,0(a2)
    2e26:	00f70633          	add	a2,a4,a5
    2e2a:	01160023          	sb	a7,0(a2)
    2e2e:	000601a3          	sb	zero,3(a2)
    2e32:	00478593          	addi	a1,a5,4
    2e36:	0805                	addi	a6,a6,1
    2e38:	87ae                	mv	a5,a1
    2e3a:	bf65                	j	2df2 <bufCovn+0x30>
    2e3c:	97ba                	add	a5,a5,a4
    2e3e:	01178023          	sb	a7,0(a5)
    2e42:	963a                	add	a2,a2,a4
    2e44:	00060023          	sb	zero,0(a2)
    2e48:	b7fd                	j	2e36 <bufCovn+0x74>
    2e4a:	fbf50693          	addi	a3,a0,-65
    2e4e:	0ff6f613          	andi	a2,a3,255
    2e52:	06c7e463          	bltu	a5,a2,2eba <bufCovn+0xf8>
    2e56:	00169793          	slli	a5,a3,0x1
    2e5a:	200006b7          	lui	a3,0x20000
    2e5e:	0e068693          	addi	a3,a3,224 # 200000e0 <morse_code_map>
    2e62:	96be                	add	a3,a3,a5
    2e64:	0006c303          	lbu	t1,0(a3)
    2e68:	4781                	li	a5,0
    2e6a:	4801                	li	a6,0
    2e6c:	4e1d                	li	t3,7
    2e6e:	4885                	li	a7,1
    2e70:	00178613          	addi	a2,a5,1
    2e74:	f86853e3          	bge	a6,t1,2dfa <bufCovn+0x38>
    2e78:	3288                	lbu	a0,1(a3)
    2e7a:	410e0eb3          	sub	t4,t3,a6
    2e7e:	00278593          	addi	a1,a5,2
    2e82:	41d55533          	sra	a0,a0,t4
    2e86:	8905                	andi	a0,a0,1
    2e88:	c115                	beqz	a0,2eac <bufCovn+0xea>
    2e8a:	95ba                	add	a1,a1,a4
    2e8c:	01158023          	sb	a7,0(a1)
    2e90:	963a                	add	a2,a2,a4
    2e92:	01160023          	sb	a7,0(a2)
    2e96:	00f70633          	add	a2,a4,a5
    2e9a:	01160023          	sb	a7,0(a2)
    2e9e:	000601a3          	sb	zero,3(a2)
    2ea2:	00478593          	addi	a1,a5,4
    2ea6:	0805                	addi	a6,a6,1
    2ea8:	87ae                	mv	a5,a1
    2eaa:	b7d9                	j	2e70 <bufCovn+0xae>
    2eac:	97ba                	add	a5,a5,a4
    2eae:	01178023          	sb	a7,0(a5)
    2eb2:	963a                	add	a2,a2,a4
    2eb4:	00060023          	sb	zero,0(a2)
    2eb8:	b7fd                	j	2ea6 <bufCovn+0xe4>
    2eba:	fd050613          	addi	a2,a0,-48
    2ebe:	0ff67693          	andi	a3,a2,255
    2ec2:	47a5                	li	a5,9
    2ec4:	06d7e663          	bltu	a5,a3,2f30 <bufCovn+0x16e>
    2ec8:	200006b7          	lui	a3,0x20000
    2ecc:	1529                	addi	a0,a0,-22
    2ece:	0e068693          	addi	a3,a3,224 # 200000e0 <morse_code_map>
    2ed2:	0506                	slli	a0,a0,0x1
    2ed4:	9536                	add	a0,a0,a3
    2ed6:	00054303          	lbu	t1,0(a0)
    2eda:	0606                	slli	a2,a2,0x1
    2edc:	4781                	li	a5,0
    2ede:	4801                	li	a6,0
    2ee0:	9636                	add	a2,a2,a3
    2ee2:	4e1d                	li	t3,7
    2ee4:	4885                	li	a7,1
    2ee6:	00178693          	addi	a3,a5,1
    2eea:	f06858e3          	bge	a6,t1,2dfa <bufCovn+0x38>
    2eee:	3208                	lbu	a0,1(a2)
    2ef0:	410e0eb3          	sub	t4,t3,a6
    2ef4:	00278593          	addi	a1,a5,2
    2ef8:	41d55533          	sra	a0,a0,t4
    2efc:	8905                	andi	a0,a0,1
    2efe:	c115                	beqz	a0,2f22 <bufCovn+0x160>
    2f00:	95ba                	add	a1,a1,a4
    2f02:	01158023          	sb	a7,0(a1)
    2f06:	96ba                	add	a3,a3,a4
    2f08:	01168023          	sb	a7,0(a3)
    2f0c:	00f706b3          	add	a3,a4,a5
    2f10:	01168023          	sb	a7,0(a3)
    2f14:	000681a3          	sb	zero,3(a3)
    2f18:	00478593          	addi	a1,a5,4
    2f1c:	0805                	addi	a6,a6,1
    2f1e:	87ae                	mv	a5,a1
    2f20:	b7d9                	j	2ee6 <bufCovn+0x124>
    2f22:	97ba                	add	a5,a5,a4
    2f24:	01178023          	sb	a7,0(a5)
    2f28:	96ba                	add	a3,a3,a4
    2f2a:	00068023          	sb	zero,0(a3)
    2f2e:	b7fd                	j	2f1c <bufCovn+0x15a>
    2f30:	02000793          	li	a5,32
    2f34:	00f51663          	bne	a0,a5,2f40 <bufCovn+0x17e>
    2f38:	00071023          	sh	zero,0(a4)
    2f3c:	4789                	li	a5,2
    2f3e:	bd75                	j	2dfa <bufCovn+0x38>
    2f40:	fdf50513          	addi	a0,a0,-33
    2f44:	0ff57513          	andi	a0,a0,255
    2f48:	47f9                	li	a5,30
    2f4a:	3ea7e063          	bltu	a5,a0,332a <bufCovn+0x568>
    2f4e:	679d                	lui	a5,0x7
    2f50:	c1478793          	addi	a5,a5,-1004 # 6c14 <Font7x10+0x820>
    2f54:	050a                	slli	a0,a0,0x2
    2f56:	953e                	add	a0,a0,a5
    2f58:	411c                	lw	a5,0(a0)
    2f5a:	8782                	jr	a5
    2f5c:	200007b7          	lui	a5,0x20000
    2f60:	0e078793          	addi	a5,a5,224 # 200000e0 <morse_code_map>
    2f64:	0487c883          	lbu	a7,72(a5)
    2f68:	0497c303          	lbu	t1,73(a5)
    2f6c:	4501                	li	a0,0
    2f6e:	4781                	li	a5,0
    2f70:	4e1d                	li	t3,7
    2f72:	4805                	li	a6,1
    2f74:	00178693          	addi	a3,a5,1
    2f78:	e91551e3          	bge	a0,a7,2dfa <bufCovn+0x38>
    2f7c:	40ae05b3          	sub	a1,t3,a0
    2f80:	40b355b3          	sra	a1,t1,a1
    2f84:	8985                	andi	a1,a1,1
    2f86:	00278613          	addi	a2,a5,2
    2f8a:	30058a63          	beqz	a1,329e <bufCovn+0x4dc>
    2f8e:	963a                	add	a2,a2,a4
    2f90:	01060023          	sb	a6,0(a2)
    2f94:	96ba                	add	a3,a3,a4
    2f96:	01068023          	sb	a6,0(a3)
    2f9a:	00f706b3          	add	a3,a4,a5
    2f9e:	01068023          	sb	a6,0(a3)
    2fa2:	000681a3          	sb	zero,3(a3)
    2fa6:	00478613          	addi	a2,a5,4
    2faa:	0505                	addi	a0,a0,1
    2fac:	87b2                	mv	a5,a2
    2fae:	b7d9                	j	2f74 <bufCovn+0x1b2>
    2fb0:	200007b7          	lui	a5,0x20000
    2fb4:	0e078793          	addi	a5,a5,224 # 200000e0 <morse_code_map>
    2fb8:	05a7c883          	lbu	a7,90(a5)
    2fbc:	05b7c303          	lbu	t1,91(a5)
    2fc0:	4501                	li	a0,0
    2fc2:	4781                	li	a5,0
    2fc4:	4e1d                	li	t3,7
    2fc6:	4805                	li	a6,1
    2fc8:	00178693          	addi	a3,a5,1
    2fcc:	e31557e3          	bge	a0,a7,2dfa <bufCovn+0x38>
    2fd0:	40ae05b3          	sub	a1,t3,a0
    2fd4:	40b355b3          	sra	a1,t1,a1
    2fd8:	8985                	andi	a1,a1,1
    2fda:	00278613          	addi	a2,a5,2
    2fde:	32058f63          	beqz	a1,331c <bufCovn+0x55a>
    2fe2:	963a                	add	a2,a2,a4
    2fe4:	01060023          	sb	a6,0(a2)
    2fe8:	96ba                	add	a3,a3,a4
    2fea:	01068023          	sb	a6,0(a3)
    2fee:	00f706b3          	add	a3,a4,a5
    2ff2:	01068023          	sb	a6,0(a3)
    2ff6:	000681a3          	sb	zero,3(a3)
    2ffa:	00478613          	addi	a2,a5,4
    2ffe:	0505                	addi	a0,a0,1
    3000:	87b2                	mv	a5,a2
    3002:	b7d9                	j	2fc8 <bufCovn+0x206>
    3004:	200007b7          	lui	a5,0x20000
    3008:	0e078793          	addi	a5,a5,224 # 200000e0 <morse_code_map>
    300c:	0507c883          	lbu	a7,80(a5)
    3010:	0517c303          	lbu	t1,81(a5)
    3014:	4501                	li	a0,0
    3016:	4781                	li	a5,0
    3018:	4e1d                	li	t3,7
    301a:	4805                	li	a6,1
    301c:	00178693          	addi	a3,a5,1
    3020:	dd155de3          	bge	a0,a7,2dfa <bufCovn+0x38>
    3024:	40ae05b3          	sub	a1,t3,a0
    3028:	40b355b3          	sra	a1,t1,a1
    302c:	8985                	andi	a1,a1,1
    302e:	00278613          	addi	a2,a5,2
    3032:	2a058263          	beqz	a1,32d6 <bufCovn+0x514>
    3036:	963a                	add	a2,a2,a4
    3038:	01060023          	sb	a6,0(a2)
    303c:	96ba                	add	a3,a3,a4
    303e:	01068023          	sb	a6,0(a3)
    3042:	00f706b3          	add	a3,a4,a5
    3046:	01068023          	sb	a6,0(a3)
    304a:	000681a3          	sb	zero,3(a3)
    304e:	00478613          	addi	a2,a5,4
    3052:	0505                	addi	a0,a0,1
    3054:	87b2                	mv	a5,a2
    3056:	b7d9                	j	301c <bufCovn+0x25a>
    3058:	200007b7          	lui	a5,0x20000
    305c:	0e078793          	addi	a5,a5,224 # 200000e0 <morse_code_map>
    3060:	0527c883          	lbu	a7,82(a5)
    3064:	0537c303          	lbu	t1,83(a5)
    3068:	4501                	li	a0,0
    306a:	4781                	li	a5,0
    306c:	4e1d                	li	t3,7
    306e:	4805                	li	a6,1
    3070:	00178693          	addi	a3,a5,1
    3074:	d91553e3          	bge	a0,a7,2dfa <bufCovn+0x38>
    3078:	40ae05b3          	sub	a1,t3,a0
    307c:	40b355b3          	sra	a1,t1,a1
    3080:	8985                	andi	a1,a1,1
    3082:	00278613          	addi	a2,a5,2
    3086:	24058f63          	beqz	a1,32e4 <bufCovn+0x522>
    308a:	963a                	add	a2,a2,a4
    308c:	01060023          	sb	a6,0(a2)
    3090:	96ba                	add	a3,a3,a4
    3092:	01068023          	sb	a6,0(a3)
    3096:	00f706b3          	add	a3,a4,a5
    309a:	01068023          	sb	a6,0(a3)
    309e:	000681a3          	sb	zero,3(a3)
    30a2:	00478613          	addi	a2,a5,4
    30a6:	0505                	addi	a0,a0,1
    30a8:	87b2                	mv	a5,a2
    30aa:	b7d9                	j	3070 <bufCovn+0x2ae>
    30ac:	200007b7          	lui	a5,0x20000
    30b0:	0e078793          	addi	a5,a5,224 # 200000e0 <morse_code_map>
    30b4:	0587c883          	lbu	a7,88(a5)
    30b8:	0597c303          	lbu	t1,89(a5)
    30bc:	4501                	li	a0,0
    30be:	4781                	li	a5,0
    30c0:	4e1d                	li	t3,7
    30c2:	4805                	li	a6,1
    30c4:	00178693          	addi	a3,a5,1
    30c8:	d31559e3          	bge	a0,a7,2dfa <bufCovn+0x38>
    30cc:	40ae05b3          	sub	a1,t3,a0
    30d0:	40b355b3          	sra	a1,t1,a1
    30d4:	8985                	andi	a1,a1,1
    30d6:	00278613          	addi	a2,a5,2
    30da:	22058a63          	beqz	a1,330e <bufCovn+0x54c>
    30de:	963a                	add	a2,a2,a4
    30e0:	01060023          	sb	a6,0(a2)
    30e4:	96ba                	add	a3,a3,a4
    30e6:	01068023          	sb	a6,0(a3)
    30ea:	00f706b3          	add	a3,a4,a5
    30ee:	01068023          	sb	a6,0(a3)
    30f2:	000681a3          	sb	zero,3(a3)
    30f6:	00478613          	addi	a2,a5,4
    30fa:	0505                	addi	a0,a0,1
    30fc:	87b2                	mv	a5,a2
    30fe:	b7d9                	j	30c4 <bufCovn+0x302>
    3100:	200007b7          	lui	a5,0x20000
    3104:	0e078793          	addi	a5,a5,224 # 200000e0 <morse_code_map>
    3108:	04c7c883          	lbu	a7,76(a5)
    310c:	04d7c303          	lbu	t1,77(a5)
    3110:	4501                	li	a0,0
    3112:	4781                	li	a5,0
    3114:	4e1d                	li	t3,7
    3116:	4805                	li	a6,1
    3118:	00178693          	addi	a3,a5,1
    311c:	cd155fe3          	bge	a0,a7,2dfa <bufCovn+0x38>
    3120:	40ae05b3          	sub	a1,t3,a0
    3124:	40b355b3          	sra	a1,t1,a1
    3128:	8985                	andi	a1,a1,1
    312a:	00278613          	addi	a2,a5,2
    312e:	18058663          	beqz	a1,32ba <bufCovn+0x4f8>
    3132:	963a                	add	a2,a2,a4
    3134:	01060023          	sb	a6,0(a2)
    3138:	96ba                	add	a3,a3,a4
    313a:	01068023          	sb	a6,0(a3)
    313e:	00f706b3          	add	a3,a4,a5
    3142:	01068023          	sb	a6,0(a3)
    3146:	000681a3          	sb	zero,3(a3)
    314a:	00478613          	addi	a2,a5,4
    314e:	0505                	addi	a0,a0,1
    3150:	87b2                	mv	a5,a2
    3152:	b7d9                	j	3118 <bufCovn+0x356>
    3154:	200007b7          	lui	a5,0x20000
    3158:	0e078793          	addi	a5,a5,224 # 200000e0 <morse_code_map>
    315c:	0567c883          	lbu	a7,86(a5)
    3160:	0577c303          	lbu	t1,87(a5)
    3164:	4501                	li	a0,0
    3166:	4781                	li	a5,0
    3168:	4e1d                	li	t3,7
    316a:	4805                	li	a6,1
    316c:	00178693          	addi	a3,a5,1
    3170:	c91555e3          	bge	a0,a7,2dfa <bufCovn+0x38>
    3174:	40ae05b3          	sub	a1,t3,a0
    3178:	40b355b3          	sra	a1,t1,a1
    317c:	8985                	andi	a1,a1,1
    317e:	00278613          	addi	a2,a5,2
    3182:	16058f63          	beqz	a1,3300 <bufCovn+0x53e>
    3186:	963a                	add	a2,a2,a4
    3188:	01060023          	sb	a6,0(a2)
    318c:	96ba                	add	a3,a3,a4
    318e:	01068023          	sb	a6,0(a3)
    3192:	00f706b3          	add	a3,a4,a5
    3196:	01068023          	sb	a6,0(a3)
    319a:	000681a3          	sb	zero,3(a3)
    319e:	00478613          	addi	a2,a5,4
    31a2:	0505                	addi	a0,a0,1
    31a4:	87b2                	mv	a5,a2
    31a6:	b7d9                	j	316c <bufCovn+0x3aa>
    31a8:	200007b7          	lui	a5,0x20000
    31ac:	0e078793          	addi	a5,a5,224 # 200000e0 <morse_code_map>
    31b0:	04e7c883          	lbu	a7,78(a5)
    31b4:	04f7c303          	lbu	t1,79(a5)
    31b8:	4501                	li	a0,0
    31ba:	4781                	li	a5,0
    31bc:	4e1d                	li	t3,7
    31be:	4805                	li	a6,1
    31c0:	00178693          	addi	a3,a5,1
    31c4:	c3155be3          	bge	a0,a7,2dfa <bufCovn+0x38>
    31c8:	40ae05b3          	sub	a1,t3,a0
    31cc:	40b355b3          	sra	a1,t1,a1
    31d0:	8985                	andi	a1,a1,1
    31d2:	00278613          	addi	a2,a5,2
    31d6:	c9ed                	beqz	a1,32c8 <bufCovn+0x506>
    31d8:	963a                	add	a2,a2,a4
    31da:	01060023          	sb	a6,0(a2)
    31de:	96ba                	add	a3,a3,a4
    31e0:	01068023          	sb	a6,0(a3)
    31e4:	00f706b3          	add	a3,a4,a5
    31e8:	01068023          	sb	a6,0(a3)
    31ec:	000681a3          	sb	zero,3(a3)
    31f0:	00478613          	addi	a2,a5,4
    31f4:	0505                	addi	a0,a0,1
    31f6:	87b2                	mv	a5,a2
    31f8:	b7e1                	j	31c0 <bufCovn+0x3fe>
    31fa:	200007b7          	lui	a5,0x20000
    31fe:	0e078793          	addi	a5,a5,224 # 200000e0 <morse_code_map>
    3202:	0547c883          	lbu	a7,84(a5)
    3206:	0557c303          	lbu	t1,85(a5)
    320a:	4501                	li	a0,0
    320c:	4781                	li	a5,0
    320e:	4e1d                	li	t3,7
    3210:	4805                	li	a6,1
    3212:	00178693          	addi	a3,a5,1
    3216:	bf1552e3          	bge	a0,a7,2dfa <bufCovn+0x38>
    321a:	40ae05b3          	sub	a1,t3,a0
    321e:	40b355b3          	sra	a1,t1,a1
    3222:	8985                	andi	a1,a1,1
    3224:	00278613          	addi	a2,a5,2
    3228:	c5e9                	beqz	a1,32f2 <bufCovn+0x530>
    322a:	963a                	add	a2,a2,a4
    322c:	01060023          	sb	a6,0(a2)
    3230:	96ba                	add	a3,a3,a4
    3232:	01068023          	sb	a6,0(a3)
    3236:	00f706b3          	add	a3,a4,a5
    323a:	01068023          	sb	a6,0(a3)
    323e:	000681a3          	sb	zero,3(a3)
    3242:	00478613          	addi	a2,a5,4
    3246:	0505                	addi	a0,a0,1
    3248:	87b2                	mv	a5,a2
    324a:	b7e1                	j	3212 <bufCovn+0x450>
    324c:	200007b7          	lui	a5,0x20000
    3250:	0e078793          	addi	a5,a5,224 # 200000e0 <morse_code_map>
    3254:	04a7c883          	lbu	a7,74(a5)
    3258:	04b7c303          	lbu	t1,75(a5)
    325c:	4501                	li	a0,0
    325e:	4781                	li	a5,0
    3260:	4e1d                	li	t3,7
    3262:	4805                	li	a6,1
    3264:	00178693          	addi	a3,a5,1
    3268:	b91559e3          	bge	a0,a7,2dfa <bufCovn+0x38>
    326c:	40ae05b3          	sub	a1,t3,a0
    3270:	40b355b3          	sra	a1,t1,a1
    3274:	8985                	andi	a1,a1,1
    3276:	00278613          	addi	a2,a5,2
    327a:	c98d                	beqz	a1,32ac <bufCovn+0x4ea>
    327c:	963a                	add	a2,a2,a4
    327e:	01060023          	sb	a6,0(a2)
    3282:	96ba                	add	a3,a3,a4
    3284:	01068023          	sb	a6,0(a3)
    3288:	00f706b3          	add	a3,a4,a5
    328c:	01068023          	sb	a6,0(a3)
    3290:	000681a3          	sb	zero,3(a3)
    3294:	00478613          	addi	a2,a5,4
    3298:	0505                	addi	a0,a0,1
    329a:	87b2                	mv	a5,a2
    329c:	b7e1                	j	3264 <bufCovn+0x4a2>
    329e:	97ba                	add	a5,a5,a4
    32a0:	01078023          	sb	a6,0(a5)
    32a4:	96ba                	add	a3,a3,a4
    32a6:	00068023          	sb	zero,0(a3)
    32aa:	b301                	j	2faa <bufCovn+0x1e8>
    32ac:	97ba                	add	a5,a5,a4
    32ae:	01078023          	sb	a6,0(a5)
    32b2:	96ba                	add	a3,a3,a4
    32b4:	00068023          	sb	zero,0(a3)
    32b8:	b7c5                	j	3298 <bufCovn+0x4d6>
    32ba:	97ba                	add	a5,a5,a4
    32bc:	01078023          	sb	a6,0(a5)
    32c0:	96ba                	add	a3,a3,a4
    32c2:	00068023          	sb	zero,0(a3)
    32c6:	b561                	j	314e <bufCovn+0x38c>
    32c8:	97ba                	add	a5,a5,a4
    32ca:	01078023          	sb	a6,0(a5)
    32ce:	96ba                	add	a3,a3,a4
    32d0:	00068023          	sb	zero,0(a3)
    32d4:	b705                	j	31f4 <bufCovn+0x432>
    32d6:	97ba                	add	a5,a5,a4
    32d8:	01078023          	sb	a6,0(a5)
    32dc:	96ba                	add	a3,a3,a4
    32de:	00068023          	sb	zero,0(a3)
    32e2:	bb85                	j	3052 <bufCovn+0x290>
    32e4:	97ba                	add	a5,a5,a4
    32e6:	01078023          	sb	a6,0(a5)
    32ea:	96ba                	add	a3,a3,a4
    32ec:	00068023          	sb	zero,0(a3)
    32f0:	bb5d                	j	30a6 <bufCovn+0x2e4>
    32f2:	97ba                	add	a5,a5,a4
    32f4:	01078023          	sb	a6,0(a5)
    32f8:	96ba                	add	a3,a3,a4
    32fa:	00068023          	sb	zero,0(a3)
    32fe:	b7a1                	j	3246 <bufCovn+0x484>
    3300:	97ba                	add	a5,a5,a4
    3302:	01078023          	sb	a6,0(a5)
    3306:	96ba                	add	a3,a3,a4
    3308:	00068023          	sb	zero,0(a3)
    330c:	bd59                	j	31a2 <bufCovn+0x3e0>
    330e:	97ba                	add	a5,a5,a4
    3310:	01078023          	sb	a6,0(a5)
    3314:	96ba                	add	a3,a3,a4
    3316:	00068023          	sb	zero,0(a3)
    331a:	b3c5                	j	30fa <bufCovn+0x338>
    331c:	97ba                	add	a5,a5,a4
    331e:	01078023          	sb	a6,0(a5)
    3322:	96ba                	add	a3,a3,a4
    3324:	00068023          	sb	zero,0(a3)
    3328:	b9d9                	j	2ffe <bufCovn+0x23c>
    332a:	4781                	li	a5,0
    332c:	b4f9                	j	2dfa <bufCovn+0x38>

0000332e <TIM2_IRQHandler>:
    332e:	1141                	addi	sp,sp,-16
    3330:	4585                	li	a1,1
    3332:	40000537          	lui	a0,0x40000
    3336:	c622                	sw	s0,12(sp)
    3338:	c426                	sw	s1,8(sp)
    333a:	c24a                	sw	s2,4(sp)
    333c:	1ed000ef          	jal	ra,3d28 <TIM_GetITStatus>
    3340:	c159                	beqz	a0,33c6 <TIM2_IRQHandler+0x98>
    3342:	4585                	li	a1,1
    3344:	40000537          	lui	a0,0x40000
    3348:	1f9000ef          	jal	ra,3d40 <TIM_ClearITPendingBit>
    334c:	8961c783          	lbu	a5,-1898(gp) # 20000256 <bufCovnMark>
    3350:	c795                	beqz	a5,337c <TIM2_IRQHandler+0x4e>
    3352:	89818713          	addi	a4,gp,-1896 # 20000258 <config>
    3356:	3318                	lbu	a4,1(a4)
    3358:	8ac1a783          	lw	a5,-1876(gp) # 2000026c <sendCount>
    335c:	cb3d                	beqz	a4,33d2 <TIM2_IRQHandler+0xa4>
    335e:	20001737          	lui	a4,0x20001
    3362:	68870713          	addi	a4,a4,1672 # 20001688 <outputBuff>
    3366:	97ba                	add	a5,a5,a4
    3368:	2388                	lbu	a0,0(a5)
    336a:	a59ff0ef          	jal	ra,2dc2 <bufCovn>
    336e:	8ac1a783          	lw	a5,-1876(gp) # 2000026c <sendCount>
    3372:	88018b23          	sb	zero,-1898(gp) # 20000256 <bufCovnMark>
    3376:	0785                	addi	a5,a5,1
    3378:	8af1a623          	sw	a5,-1876(gp) # 2000026c <sendCount>
    337c:	8b818713          	addi	a4,gp,-1864 # 20000278 <count.4751>
    3380:	4314                	lw	a3,0(a4)
    3382:	8bc1a783          	lw	a5,-1860(gp) # 2000027c <sendBufLen>
    3386:	8b818913          	addi	s2,gp,-1864 # 20000278 <count.4751>
    338a:	06f6f563          	bgeu	a3,a5,33f4 <TIM2_IRQHandler+0xc6>
    338e:	200027b7          	lui	a5,0x20002
    3392:	88878793          	addi	a5,a5,-1912 # 20001888 <sendbuf>
    3396:	97b6                	add	a5,a5,a3
    3398:	239c                	lbu	a5,0(a5)
    339a:	c3a9                	beqz	a5,33dc <TIM2_IRQHandler+0xae>
    339c:	400114b7          	lui	s1,0x40011
    33a0:	4605                	li	a2,1
    33a2:	4589                	li	a1,2
    33a4:	80048513          	addi	a0,s1,-2048 # 40010800 <_eusrstack+0x2000b800>
    33a8:	2369                	jal	3932 <GPIO_WriteBit>
    33aa:	8981c783          	lbu	a5,-1896(gp) # 20000258 <config>
    33ae:	c799                	beqz	a5,33bc <TIM2_IRQHandler+0x8e>
    33b0:	4605                	li	a2,1
    33b2:	20000593          	li	a1,512
    33b6:	c0048513          	addi	a0,s1,-1024
    33ba:	2ba5                	jal	3932 <GPIO_WriteBit>
    33bc:	00092783          	lw	a5,0(s2)
    33c0:	0785                	addi	a5,a5,1
    33c2:	00f92023          	sw	a5,0(s2)
    33c6:	4432                	lw	s0,12(sp)
    33c8:	44a2                	lw	s1,8(sp)
    33ca:	4912                	lw	s2,4(sp)
    33cc:	0141                	addi	sp,sp,16
    33ce:	30200073          	mret
    33d2:	20001737          	lui	a4,0x20001
    33d6:	47c70713          	addi	a4,a4,1148 # 2000147c <inputBuff>
    33da:	b771                	j	3366 <TIM2_IRQHandler+0x38>
    33dc:	400114b7          	lui	s1,0x40011
    33e0:	4601                	li	a2,0
    33e2:	4589                	li	a1,2
    33e4:	80048513          	addi	a0,s1,-2048 # 40010800 <_eusrstack+0x2000b800>
    33e8:	23a9                	jal	3932 <GPIO_WriteBit>
    33ea:	8981c783          	lbu	a5,-1896(gp) # 20000258 <config>
    33ee:	d7f9                	beqz	a5,33bc <TIM2_IRQHandler+0x8e>
    33f0:	4601                	li	a2,0
    33f2:	b7c1                	j	33b2 <TIM2_IRQHandler+0x84>
    33f4:	89818413          	addi	s0,gp,-1896 # 20000258 <config>
    33f8:	00072023          	sw	zero,0(a4)
    33fc:	3018                	lbu	a4,1(s0)
    33fe:	8ac1a783          	lw	a5,-1876(gp) # 2000026c <sendCount>
    3402:	c705                	beqz	a4,342a <TIM2_IRQHandler+0xfc>
    3404:	8a41a603          	lw	a2,-1884(gp) # 20000264 <outputBuffSize>
    3408:	00c7f663          	bgeu	a5,a2,3414 <TIM2_IRQHandler+0xe6>
    340c:	4785                	li	a5,1
    340e:	88f18b23          	sb	a5,-1898(gp) # 20000256 <bufCovnMark>
    3412:	bf55                	j	33c6 <TIM2_IRQHandler+0x98>
    3414:	200017b7          	lui	a5,0x20001
    3418:	8a01a623          	sw	zero,-1876(gp) # 2000026c <sendCount>
    341c:	68078423          	sb	zero,1672(a5) # 20001688 <outputBuff>
    3420:	8a01a223          	sw	zero,-1884(gp) # 20000264 <outputBuffSize>
    3424:	959ff0ef          	jal	ra,2d7c <endSending>
    3428:	bf79                	j	33c6 <TIM2_IRQHandler+0x98>
    342a:	89c1a703          	lw	a4,-1892(gp) # 2000025c <inputBuffSize>
    342e:	fce7efe3          	bltu	a5,a4,340c <TIM2_IRQHandler+0xde>
    3432:	bfcd                	j	3424 <TIM2_IRQHandler+0xf6>

00003434 <SystemInit>:
    3434:	400217b7          	lui	a5,0x40021
    3438:	4398                	lw	a4,0(a5)
    343a:	f0ff06b7          	lui	a3,0xf0ff0
    343e:	1141                	addi	sp,sp,-16
    3440:	00176713          	ori	a4,a4,1
    3444:	c398                	sw	a4,0(a5)
    3446:	43d8                	lw	a4,4(a5)
    3448:	00020637          	lui	a2,0x20
    344c:	8f75                	and	a4,a4,a3
    344e:	c3d8                	sw	a4,4(a5)
    3450:	4398                	lw	a4,0(a5)
    3452:	fef706b7          	lui	a3,0xfef70
    3456:	16fd                	addi	a3,a3,-1
    3458:	8f75                	and	a4,a4,a3
    345a:	c398                	sw	a4,0(a5)
    345c:	4398                	lw	a4,0(a5)
    345e:	fffc06b7          	lui	a3,0xfffc0
    3462:	16fd                	addi	a3,a3,-1
    3464:	8f75                	and	a4,a4,a3
    3466:	c398                	sw	a4,0(a5)
    3468:	43d8                	lw	a4,4(a5)
    346a:	ff0106b7          	lui	a3,0xff010
    346e:	16fd                	addi	a3,a3,-1
    3470:	8f75                	and	a4,a4,a3
    3472:	c3d8                	sw	a4,4(a5)
    3474:	009f0737          	lui	a4,0x9f0
    3478:	c798                	sw	a4,8(a5)
    347a:	c402                	sw	zero,8(sp)
    347c:	c602                	sw	zero,12(sp)
    347e:	4398                	lw	a4,0(a5)
    3480:	66c1                	lui	a3,0x10
    3482:	8f55                	or	a4,a4,a3
    3484:	c398                	sw	a4,0(a5)
    3486:	400216b7          	lui	a3,0x40021
    348a:	6705                	lui	a4,0x1
    348c:	429c                	lw	a5,0(a3)
    348e:	8ff1                	and	a5,a5,a2
    3490:	c63e                	sw	a5,12(sp)
    3492:	47a2                	lw	a5,8(sp)
    3494:	0785                	addi	a5,a5,1
    3496:	c43e                	sw	a5,8(sp)
    3498:	47b2                	lw	a5,12(sp)
    349a:	e781                	bnez	a5,34a2 <SystemInit+0x6e>
    349c:	47a2                	lw	a5,8(sp)
    349e:	fee797e3          	bne	a5,a4,348c <SystemInit+0x58>
    34a2:	400217b7          	lui	a5,0x40021
    34a6:	439c                	lw	a5,0(a5)
    34a8:	00e79713          	slli	a4,a5,0xe
    34ac:	06075763          	bgez	a4,351a <SystemInit+0xe6>
    34b0:	4785                	li	a5,1
    34b2:	c63e                	sw	a5,12(sp)
    34b4:	4732                	lw	a4,12(sp)
    34b6:	4785                	li	a5,1
    34b8:	04f71f63          	bne	a4,a5,3516 <SystemInit+0xe2>
    34bc:	400217b7          	lui	a5,0x40021
    34c0:	43d8                	lw	a4,4(a5)
    34c2:	ffc106b7          	lui	a3,0xffc10
    34c6:	16fd                	addi	a3,a3,-1
    34c8:	c3d8                	sw	a4,4(a5)
    34ca:	43d8                	lw	a4,4(a5)
    34cc:	c3d8                	sw	a4,4(a5)
    34ce:	43d8                	lw	a4,4(a5)
    34d0:	40076713          	ori	a4,a4,1024
    34d4:	c3d8                	sw	a4,4(a5)
    34d6:	43d8                	lw	a4,4(a5)
    34d8:	8f75                	and	a4,a4,a3
    34da:	c3d8                	sw	a4,4(a5)
    34dc:	43d8                	lw	a4,4(a5)
    34de:	002906b7          	lui	a3,0x290
    34e2:	8f55                	or	a4,a4,a3
    34e4:	c3d8                	sw	a4,4(a5)
    34e6:	4398                	lw	a4,0(a5)
    34e8:	010006b7          	lui	a3,0x1000
    34ec:	8f55                	or	a4,a4,a3
    34ee:	c398                	sw	a4,0(a5)
    34f0:	4398                	lw	a4,0(a5)
    34f2:	00671693          	slli	a3,a4,0x6
    34f6:	fe06dde3          	bgez	a3,34f0 <SystemInit+0xbc>
    34fa:	43d8                	lw	a4,4(a5)
    34fc:	400216b7          	lui	a3,0x40021
    3500:	9b71                	andi	a4,a4,-4
    3502:	c3d8                	sw	a4,4(a5)
    3504:	43d8                	lw	a4,4(a5)
    3506:	00276713          	ori	a4,a4,2
    350a:	c3d8                	sw	a4,4(a5)
    350c:	4721                	li	a4,8
    350e:	42dc                	lw	a5,4(a3)
    3510:	8bb1                	andi	a5,a5,12
    3512:	fee79ee3          	bne	a5,a4,350e <SystemInit+0xda>
    3516:	0141                	addi	sp,sp,16
    3518:	8082                	ret
    351a:	c602                	sw	zero,12(sp)
    351c:	bf61                	j	34b4 <SystemInit+0x80>

0000351e <SystemCoreClockUpdate>:
    351e:	400216b7          	lui	a3,0x40021
    3522:	42dc                	lw	a5,4(a3)
    3524:	4611                	li	a2,4
    3526:	8bb1                	andi	a5,a5,12
    3528:	81418713          	addi	a4,gp,-2028 # 200001d4 <SystemCoreClock>
    352c:	00c78563          	beq	a5,a2,3536 <SystemCoreClockUpdate+0x18>
    3530:	4621                	li	a2,8
    3532:	02c78863          	beq	a5,a2,3562 <SystemCoreClockUpdate+0x44>
    3536:	007a17b7          	lui	a5,0x7a1
    353a:	20078793          	addi	a5,a5,512 # 7a1200 <_data_lma+0x79a4d4>
    353e:	c31c                	sw	a5,0(a4)
    3540:	400217b7          	lui	a5,0x40021
    3544:	43dc                	lw	a5,4(a5)
    3546:	8391                	srli	a5,a5,0x4
    3548:	00f7f693          	andi	a3,a5,15
    354c:	200007b7          	lui	a5,0x20000
    3550:	13c78793          	addi	a5,a5,316 # 2000013c <AHBPrescTable>
    3554:	97b6                	add	a5,a5,a3
    3556:	2394                	lbu	a3,0(a5)
    3558:	431c                	lw	a5,0(a4)
    355a:	00d7d7b3          	srl	a5,a5,a3
    355e:	c31c                	sw	a5,0(a4)
    3560:	8082                	ret
    3562:	42dc                	lw	a5,4(a3)
    3564:	42d4                	lw	a3,4(a3)
    3566:	6641                	lui	a2,0x10
    3568:	83c9                	srli	a5,a5,0x12
    356a:	8bbd                	andi	a5,a5,15
    356c:	8ef1                	and	a3,a3,a2
    356e:	0789                	addi	a5,a5,2
    3570:	4645                	li	a2,17
    3572:	00c79363          	bne	a5,a2,3578 <SystemCoreClockUpdate+0x5a>
    3576:	47c9                	li	a5,18
    3578:	ee81                	bnez	a3,3590 <SystemCoreClockUpdate+0x72>
    357a:	400246b7          	lui	a3,0x40024
    357e:	8006a683          	lw	a3,-2048(a3) # 40023800 <_eusrstack+0x2001e800>
    3582:	8ac1                	andi	a3,a3,16
    3584:	ce89                	beqz	a3,359e <SystemCoreClockUpdate+0x80>
    3586:	007a16b7          	lui	a3,0x7a1
    358a:	20068693          	addi	a3,a3,512 # 7a1200 <_data_lma+0x79a4d4>
    358e:	a821                	j	35a6 <SystemCoreClockUpdate+0x88>
    3590:	400216b7          	lui	a3,0x40021
    3594:	42d4                	lw	a3,4(a3)
    3596:	00e69613          	slli	a2,a3,0xe
    359a:	fe0656e3          	bgez	a2,3586 <SystemCoreClockUpdate+0x68>
    359e:	003d16b7          	lui	a3,0x3d1
    35a2:	90068693          	addi	a3,a3,-1792 # 3d0900 <_data_lma+0x3c9bd4>
    35a6:	02d787b3          	mul	a5,a5,a3
    35aa:	bf51                	j	353e <SystemCoreClockUpdate+0x20>

000035ac <ADC1_2_IRQHandler>:
    35ac:	a001                	j	35ac <ADC1_2_IRQHandler>

000035ae <handle_reset>:
    35ae:	1fffd197          	auipc	gp,0x1fffd
    35b2:	41218193          	addi	gp,gp,1042 # 200009c0 <__global_pointer$>
    35b6:	20002117          	auipc	sp,0x20002
    35ba:	a4a10113          	addi	sp,sp,-1462 # 20005000 <_eusrstack>
    35be:	00003517          	auipc	a0,0x3
    35c2:	76e50513          	addi	a0,a0,1902 # 6d2c <_data_lma>
    35c6:	1fffd597          	auipc	a1,0x1fffd
    35ca:	a3a58593          	addi	a1,a1,-1478 # 20000000 <_data_vma>
    35ce:	89018613          	addi	a2,gp,-1904 # 20000250 <_edata>
    35d2:	00c5fa63          	bgeu	a1,a2,35e6 <handle_reset+0x38>
    35d6:	00052283          	lw	t0,0(a0)
    35da:	0055a023          	sw	t0,0(a1)
    35de:	0511                	addi	a0,a0,4
    35e0:	0591                	addi	a1,a1,4
    35e2:	fec5eae3          	bltu	a1,a2,35d6 <handle_reset+0x28>
    35e6:	89018513          	addi	a0,gp,-1904 # 20000250 <_edata>
    35ea:	1fffe597          	auipc	a1,0x1fffe
    35ee:	2be58593          	addi	a1,a1,702 # 200018a8 <_ebss>
    35f2:	00b57763          	bgeu	a0,a1,3600 <handle_reset+0x52>
    35f6:	00052023          	sw	zero,0(a0)
    35fa:	0511                	addi	a0,a0,4
    35fc:	feb56de3          	bltu	a0,a1,35f6 <handle_reset+0x48>
    3600:	42fd                	li	t0,31
    3602:	bc029073          	csrw	0xbc0,t0
    3606:	428d                	li	t0,3
    3608:	80429073          	csrw	0x804,t0
    360c:	08800293          	li	t0,136
    3610:	30029073          	csrw	mstatus,t0
    3614:	ffffd297          	auipc	t0,0xffffd
    3618:	9f028293          	addi	t0,t0,-1552 # 4 <_einit>
    361c:	0032e293          	ori	t0,t0,3
    3620:	30529073          	csrw	mtvec,t0
    3624:	e11ff0ef          	jal	ra,3434 <SystemInit>
    3628:	fffff297          	auipc	t0,0xfffff
    362c:	3a428293          	addi	t0,t0,932 # 29cc <main>
    3630:	34129073          	csrw	mepc,t0
    3634:	30200073          	mret

00003638 <DBGMCU_GetCHIPID>:
    3638:	1ffff7b7          	lui	a5,0x1ffff
    363c:	7047a503          	lw	a0,1796(a5) # 1ffff704 <_data_lma+0x1fff89d8>
    3640:	8082                	ret

00003642 <FLASH_Unlock>:
    3642:	456707b7          	lui	a5,0x45670
    3646:	40022737          	lui	a4,0x40022
    364a:	12378793          	addi	a5,a5,291 # 45670123 <_eusrstack+0x2566b123>
    364e:	c35c                	sw	a5,4(a4)
    3650:	cdef97b7          	lui	a5,0xcdef9
    3654:	9ab78793          	addi	a5,a5,-1621 # cdef89ab <_eusrstack+0xadef39ab>
    3658:	c35c                	sw	a5,4(a4)
    365a:	8082                	ret

0000365c <FLASH_Lock>:
    365c:	40022737          	lui	a4,0x40022
    3660:	4b1c                	lw	a5,16(a4)
    3662:	0807e793          	ori	a5,a5,128
    3666:	cb1c                	sw	a5,16(a4)
    3668:	8082                	ret

0000366a <FLASH_ClearFlag>:
    366a:	400227b7          	lui	a5,0x40022
    366e:	c7c8                	sw	a0,12(a5)
    3670:	8082                	ret

00003672 <FLASH_GetBank1Status>:
    3672:	40022737          	lui	a4,0x40022
    3676:	475c                	lw	a5,12(a4)
    3678:	4505                	li	a0,1
    367a:	8b85                	andi	a5,a5,1
    367c:	e791                	bnez	a5,3688 <FLASH_GetBank1Status+0x16>
    367e:	4748                	lw	a0,12(a4)
    3680:	8941                	andi	a0,a0,16
    3682:	00153513          	seqz	a0,a0
    3686:	050d                	addi	a0,a0,3
    3688:	8082                	ret

0000368a <FLASH_WaitForLastOperation>:
    368a:	aa7fc2ef          	jal	t0,130 <__riscv_save_0>
    368e:	842a                	mv	s0,a0
    3690:	4485                	li	s1,1
    3692:	fe1ff0ef          	jal	ra,3672 <FLASH_GetBank1Status>
    3696:	00951963          	bne	a0,s1,36a8 <FLASH_WaitForLastOperation+0x1e>
    369a:	e019                	bnez	s0,36a0 <FLASH_WaitForLastOperation+0x16>
    369c:	4515                	li	a0,5
    369e:	a031                	j	36aa <FLASH_WaitForLastOperation+0x20>
    36a0:	fd3ff0ef          	jal	ra,3672 <FLASH_GetBank1Status>
    36a4:	147d                	addi	s0,s0,-1
    36a6:	bfc5                	j	3696 <FLASH_WaitForLastOperation+0xc>
    36a8:	d875                	beqz	s0,369c <FLASH_WaitForLastOperation+0x12>
    36aa:	aabfc06f          	j	154 <__riscv_restore_0>

000036ae <FLASH_ErasePage>:
    36ae:	a83fc2ef          	jal	t0,130 <__riscv_save_0>
    36b2:	84aa                	mv	s1,a0
    36b4:	000b0537          	lui	a0,0xb0
    36b8:	fd3ff0ef          	jal	ra,368a <FLASH_WaitForLastOperation>
    36bc:	4791                	li	a5,4
    36be:	02f51463          	bne	a0,a5,36e6 <FLASH_ErasePage+0x38>
    36c2:	40022437          	lui	s0,0x40022
    36c6:	481c                	lw	a5,16(s0)
    36c8:	000b0537          	lui	a0,0xb0
    36cc:	0027e793          	ori	a5,a5,2
    36d0:	c81c                	sw	a5,16(s0)
    36d2:	c844                	sw	s1,20(s0)
    36d4:	481c                	lw	a5,16(s0)
    36d6:	0407e793          	ori	a5,a5,64
    36da:	c81c                	sw	a5,16(s0)
    36dc:	fafff0ef          	jal	ra,368a <FLASH_WaitForLastOperation>
    36e0:	481c                	lw	a5,16(s0)
    36e2:	9bf5                	andi	a5,a5,-3
    36e4:	c81c                	sw	a5,16(s0)
    36e6:	a6ffc06f          	j	154 <__riscv_restore_0>

000036ea <FLASH_ProgramWord>:
    36ea:	a2dfc2ef          	jal	t0,116 <__riscv_save_4>
    36ee:	1141                	addi	sp,sp,-16
    36f0:	892a                	mv	s2,a0
    36f2:	6515                	lui	a0,0x5
    36f4:	84ae                	mv	s1,a1
    36f6:	c602                	sw	zero,12(sp)
    36f8:	4991                	li	s3,4
    36fa:	f91ff0ef          	jal	ra,368a <FLASH_WaitForLastOperation>
    36fe:	03351d63          	bne	a0,s3,3738 <FLASH_ProgramWord+0x4e>
    3702:	40022437          	lui	s0,0x40022
    3706:	481c                	lw	a5,16(s0)
    3708:	6515                	lui	a0,0x5
    370a:	0017e793          	ori	a5,a5,1
    370e:	c81c                	sw	a5,16(s0)
    3710:	01049793          	slli	a5,s1,0x10
    3714:	83c1                	srli	a5,a5,0x10
    3716:	00f91023          	sh	a5,0(s2)
    371a:	f71ff0ef          	jal	ra,368a <FLASH_WaitForLastOperation>
    371e:	01351a63          	bne	a0,s3,3732 <FLASH_ProgramWord+0x48>
    3722:	0909                	addi	s2,s2,2
    3724:	c64a                	sw	s2,12(sp)
    3726:	47b2                	lw	a5,12(sp)
    3728:	80c1                	srli	s1,s1,0x10
    372a:	6515                	lui	a0,0x5
    372c:	a386                	sh	s1,0(a5)
    372e:	f5dff0ef          	jal	ra,368a <FLASH_WaitForLastOperation>
    3732:	481c                	lw	a5,16(s0)
    3734:	9bf9                	andi	a5,a5,-2
    3736:	c81c                	sw	a5,16(s0)
    3738:	0141                	addi	sp,sp,16
    373a:	a11fc06f          	j	14a <__riscv_restore_4>

0000373e <FLASH_ROM_WRITE>:
    373e:	f80007b7          	lui	a5,0xf8000
    3742:	97aa                	add	a5,a5,a0
    3744:	00038737          	lui	a4,0x38
    3748:	0ae7ff63          	bgeu	a5,a4,3806 <FLASH_ROM_WRITE+0xc8>
    374c:	00c50733          	add	a4,a0,a2
    3750:	080386b7          	lui	a3,0x8038
    3754:	0fd00793          	li	a5,253
    3758:	0ae6e563          	bltu	a3,a4,3802 <FLASH_ROM_WRITE+0xc4>
    375c:	00c56733          	or	a4,a0,a2
    3760:	0ff77713          	andi	a4,a4,255
    3764:	0fe00793          	li	a5,254
    3768:	ef49                	bnez	a4,3802 <FLASH_ROM_WRITE+0xc4>
    376a:	ce41                	beqz	a2,3802 <FLASH_ROM_WRITE+0xc4>
    376c:	456706b7          	lui	a3,0x45670
    3770:	400227b7          	lui	a5,0x40022
    3774:	12368693          	addi	a3,a3,291 # 45670123 <_eusrstack+0x2566b123>
    3778:	cdef9737          	lui	a4,0xcdef9
    377c:	c3d4                	sw	a3,4(a5)
    377e:	9ab70713          	addi	a4,a4,-1621 # cdef89ab <_eusrstack+0xadef39ab>
    3782:	c3d8                	sw	a4,4(a5)
    3784:	d3d4                	sw	a3,36(a5)
    3786:	76c1                	lui	a3,0xffff0
    3788:	8221                	srli	a2,a2,0x8
    378a:	d3d8                	sw	a4,36(a5)
    378c:	8d89                	sub	a1,a1,a0
    378e:	68c1                	lui	a7,0x10
    3790:	10000313          	li	t1,256
    3794:	00200e37          	lui	t3,0x200
    3798:	16fd                	addi	a3,a3,-1
    379a:	4b98                	lw	a4,16(a5)
    379c:	00a58eb3          	add	t4,a1,a0
    37a0:	01176733          	or	a4,a4,a7
    37a4:	cb98                	sw	a4,16(a5)
    37a6:	47d8                	lw	a4,12(a5)
    37a8:	8b05                	andi	a4,a4,1
    37aa:	ff75                	bnez	a4,37a6 <FLASH_ROM_WRITE+0x68>
    37ac:	47d8                	lw	a4,12(a5)
    37ae:	8b09                	andi	a4,a4,2
    37b0:	ff75                	bnez	a4,37ac <FLASH_ROM_WRITE+0x6e>
    37b2:	00ee8833          	add	a6,t4,a4
    37b6:	00082f03          	lw	t5,0(a6)
    37ba:	00e50833          	add	a6,a0,a4
    37be:	01e82023          	sw	t5,0(a6)
    37c2:	00c7a803          	lw	a6,12(a5) # 4002200c <_eusrstack+0x2001d00c>
    37c6:	00287813          	andi	a6,a6,2
    37ca:	fe081ce3          	bnez	a6,37c2 <FLASH_ROM_WRITE+0x84>
    37ce:	0711                	addi	a4,a4,4
    37d0:	fe6711e3          	bne	a4,t1,37b2 <FLASH_ROM_WRITE+0x74>
    37d4:	4b98                	lw	a4,16(a5)
    37d6:	10050513          	addi	a0,a0,256 # 5100 <_printf_i+0x1e>
    37da:	01c76733          	or	a4,a4,t3
    37de:	cb98                	sw	a4,16(a5)
    37e0:	47d8                	lw	a4,12(a5)
    37e2:	8b05                	andi	a4,a4,1
    37e4:	ff75                	bnez	a4,37e0 <FLASH_ROM_WRITE+0xa2>
    37e6:	4b98                	lw	a4,16(a5)
    37e8:	167d                	addi	a2,a2,-1
    37ea:	8f75                	and	a4,a4,a3
    37ec:	cb98                	sw	a4,16(a5)
    37ee:	f655                	bnez	a2,379a <FLASH_ROM_WRITE+0x5c>
    37f0:	4b98                	lw	a4,16(a5)
    37f2:	66a1                	lui	a3,0x8
    37f4:	8f55                	or	a4,a4,a3
    37f6:	cb98                	sw	a4,16(a5)
    37f8:	4b98                	lw	a4,16(a5)
    37fa:	08076713          	ori	a4,a4,128
    37fe:	cb98                	sw	a4,16(a5)
    3800:	4791                	li	a5,4
    3802:	853e                	mv	a0,a5
    3804:	8082                	ret
    3806:	0ff00793          	li	a5,255
    380a:	bfe5                	j	3802 <FLASH_ROM_WRITE+0xc4>

0000380c <GPIO_Init>:
    380c:	459c                	lw	a5,8(a1)
    380e:	0107f713          	andi	a4,a5,16
    3812:	00f7f813          	andi	a6,a5,15
    3816:	c701                	beqz	a4,381e <GPIO_Init+0x12>
    3818:	41d8                	lw	a4,4(a1)
    381a:	00e86833          	or	a6,a6,a4
    381e:	40022737          	lui	a4,0x40022
    3822:	5b14                	lw	a3,48(a4)
    3824:	0f000737          	lui	a4,0xf000
    3828:	8f75                	and	a4,a4,a3
    382a:	eb4d                	bnez	a4,38dc <GPIO_Init+0xd0>
    382c:	4685                	li	a3,1
    382e:	8cd18023          	sb	a3,-1856(gp) # 20000280 <MCU_Version>
    3832:	40011737          	lui	a4,0x40011
    3836:	00e51563          	bne	a0,a4,3840 <GPIO_Init+0x34>
    383a:	219a                	lhu	a4,0(a1)
    383c:	8335                	srli	a4,a4,0xd
    383e:	a19a                	sh	a4,0(a1)
    3840:	218e                	lhu	a1,0(a1)
    3842:	0ff5f713          	andi	a4,a1,255
    3846:	c339                	beqz	a4,388c <GPIO_Init+0x80>
    3848:	4118                	lw	a4,0(a0)
    384a:	4681                	li	a3,0
    384c:	4e85                	li	t4,1
    384e:	4f3d                	li	t5,15
    3850:	02800f93          	li	t6,40
    3854:	04800293          	li	t0,72
    3858:	4e21                	li	t3,8
    385a:	00de9633          	sll	a2,t4,a3
    385e:	00c5f8b3          	and	a7,a1,a2
    3862:	03161163          	bne	a2,a7,3884 <GPIO_Init+0x78>
    3866:	00269893          	slli	a7,a3,0x2
    386a:	011f1333          	sll	t1,t5,a7
    386e:	fff34313          	not	t1,t1
    3872:	00e37733          	and	a4,t1,a4
    3876:	011818b3          	sll	a7,a6,a7
    387a:	00e8e733          	or	a4,a7,a4
    387e:	07f79763          	bne	a5,t6,38ec <GPIO_Init+0xe0>
    3882:	c950                	sw	a2,20(a0)
    3884:	0685                	addi	a3,a3,1
    3886:	fdc69ae3          	bne	a3,t3,385a <GPIO_Init+0x4e>
    388a:	c118                	sw	a4,0(a0)
    388c:	0ff00713          	li	a4,255
    3890:	04b77563          	bgeu	a4,a1,38da <GPIO_Init+0xce>
    3894:	4154                	lw	a3,4(a0)
    3896:	4621                	li	a2,8
    3898:	4e85                	li	t4,1
    389a:	4f3d                	li	t5,15
    389c:	02800f93          	li	t6,40
    38a0:	04800293          	li	t0,72
    38a4:	4e41                	li	t3,16
    38a6:	00ce98b3          	sll	a7,t4,a2
    38aa:	0115f733          	and	a4,a1,a7
    38ae:	02e89263          	bne	a7,a4,38d2 <GPIO_Init+0xc6>
    38b2:	00261713          	slli	a4,a2,0x2
    38b6:	1701                	addi	a4,a4,-32
    38b8:	00ef1333          	sll	t1,t5,a4
    38bc:	fff34313          	not	t1,t1
    38c0:	00d376b3          	and	a3,t1,a3
    38c4:	00e81733          	sll	a4,a6,a4
    38c8:	8ed9                	or	a3,a3,a4
    38ca:	03f79563          	bne	a5,t6,38f4 <GPIO_Init+0xe8>
    38ce:	01152a23          	sw	a7,20(a0)
    38d2:	0605                	addi	a2,a2,1
    38d4:	fdc619e3          	bne	a2,t3,38a6 <GPIO_Init+0x9a>
    38d8:	c154                	sw	a3,4(a0)
    38da:	8082                	ret
    38dc:	40011737          	lui	a4,0x40011
    38e0:	f6e510e3          	bne	a0,a4,3840 <GPIO_Init+0x34>
    38e4:	8c01c703          	lbu	a4,-1856(gp) # 20000280 <MCU_Version>
    38e8:	df21                	beqz	a4,3840 <GPIO_Init+0x34>
    38ea:	bf81                	j	383a <GPIO_Init+0x2e>
    38ec:	f8579ce3          	bne	a5,t0,3884 <GPIO_Init+0x78>
    38f0:	c910                	sw	a2,16(a0)
    38f2:	bf49                	j	3884 <GPIO_Init+0x78>
    38f4:	fc579fe3          	bne	a5,t0,38d2 <GPIO_Init+0xc6>
    38f8:	01152823          	sw	a7,16(a0)
    38fc:	bfd9                	j	38d2 <GPIO_Init+0xc6>

000038fe <GPIO_ReadInputDataBit>:
    38fe:	400117b7          	lui	a5,0x40011
    3902:	00f51663          	bne	a0,a5,390e <GPIO_ReadInputDataBit+0x10>
    3906:	8c01c783          	lbu	a5,-1856(gp) # 20000280 <MCU_Version>
    390a:	c391                	beqz	a5,390e <GPIO_ReadInputDataBit+0x10>
    390c:	81b5                	srli	a1,a1,0xd
    390e:	4508                	lw	a0,8(a0)
    3910:	8d6d                	and	a0,a0,a1
    3912:	00a03533          	snez	a0,a0
    3916:	8082                	ret

00003918 <GPIO_ReadOutputDataBit>:
    3918:	400117b7          	lui	a5,0x40011
    391c:	00f51663          	bne	a0,a5,3928 <GPIO_ReadOutputDataBit+0x10>
    3920:	8c01c783          	lbu	a5,-1856(gp) # 20000280 <MCU_Version>
    3924:	c391                	beqz	a5,3928 <GPIO_ReadOutputDataBit+0x10>
    3926:	81b5                	srli	a1,a1,0xd
    3928:	4548                	lw	a0,12(a0)
    392a:	8d6d                	and	a0,a0,a1
    392c:	00a03533          	snez	a0,a0
    3930:	8082                	ret

00003932 <GPIO_WriteBit>:
    3932:	400117b7          	lui	a5,0x40011
    3936:	00f51663          	bne	a0,a5,3942 <GPIO_WriteBit+0x10>
    393a:	8c01c783          	lbu	a5,-1856(gp) # 20000280 <MCU_Version>
    393e:	c391                	beqz	a5,3942 <GPIO_WriteBit+0x10>
    3940:	81b5                	srli	a1,a1,0xd
    3942:	c219                	beqz	a2,3948 <GPIO_WriteBit+0x16>
    3944:	c90c                	sw	a1,16(a0)
    3946:	8082                	ret
    3948:	c94c                	sw	a1,20(a0)
    394a:	8082                	ret

0000394c <I2C_Init>:
    394c:	fe4fc2ef          	jal	t0,130 <__riscv_save_0>
    3950:	7179                	addi	sp,sp,-48
    3952:	2146                	lhu	s1,4(a0)
    3954:	842a                	mv	s0,a0
    3956:	0868                	addi	a0,sp,28
    3958:	c62e                	sw	a1,12(sp)
    395a:	240d                	jal	3b7c <RCC_GetClocksFreq>
    395c:	5792                	lw	a5,36(sp)
    395e:	000f4737          	lui	a4,0xf4
    3962:	24070713          	addi	a4,a4,576 # f4240 <_data_lma+0xed514>
    3966:	02e7d733          	divu	a4,a5,a4
    396a:	04c2                	slli	s1,s1,0x10
    396c:	80c1                	srli	s1,s1,0x10
    396e:	fc04f493          	andi	s1,s1,-64
    3972:	04c2                	slli	s1,s1,0x10
    3974:	039386b7          	lui	a3,0x3938
    3978:	80c1                	srli	s1,s1,0x10
    397a:	6ff68693          	addi	a3,a3,1791 # 39386ff <_data_lma+0x39319d3>
    397e:	45b2                	lw	a1,12(sp)
    3980:	0742                	slli	a4,a4,0x10
    3982:	8341                	srli	a4,a4,0x10
    3984:	8cd9                	or	s1,s1,a4
    3986:	00f6f463          	bgeu	a3,a5,398e <I2C_Init+0x42>
    398a:	03c00713          	li	a4,60
    398e:	a046                	sh	s1,4(s0)
    3990:	2016                	lhu	a3,0(s0)
    3992:	6661                	lui	a2,0x18
    3994:	6a060613          	addi	a2,a2,1696 # 186a0 <_data_lma+0x11974>
    3998:	06c2                	slli	a3,a3,0x10
    399a:	82c1                	srli	a3,a3,0x10
    399c:	9af9                	andi	a3,a3,-2
    399e:	06c2                	slli	a3,a3,0x10
    39a0:	82c1                	srli	a3,a3,0x10
    39a2:	a016                	sh	a3,0(s0)
    39a4:	4194                	lw	a3,0(a1)
    39a6:	04d66963          	bltu	a2,a3,39f8 <I2C_Init+0xac>
    39aa:	0686                	slli	a3,a3,0x1
    39ac:	02d7d7b3          	divu	a5,a5,a3
    39b0:	4611                	li	a2,4
    39b2:	01079693          	slli	a3,a5,0x10
    39b6:	82c1                	srli	a3,a3,0x10
    39b8:	87b6                	mv	a5,a3
    39ba:	00c6f363          	bgeu	a3,a2,39c0 <I2C_Init+0x74>
    39be:	4791                	li	a5,4
    39c0:	07c2                	slli	a5,a5,0x10
    39c2:	83c1                	srli	a5,a5,0x10
    39c4:	0705                	addi	a4,a4,1
    39c6:	0742                	slli	a4,a4,0x10
    39c8:	8341                	srli	a4,a4,0x10
    39ca:	b01a                	sh	a4,32(s0)
    39cc:	ac5e                	sh	a5,28(s0)
    39ce:	201e                	lhu	a5,0(s0)
    39d0:	21da                	lhu	a4,4(a1)
    39d2:	25b6                	lhu	a3,10(a1)
    39d4:	0017e793          	ori	a5,a5,1
    39d8:	a01e                	sh	a5,0(s0)
    39da:	201e                	lhu	a5,0(s0)
    39dc:	8f55                	or	a4,a4,a3
    39de:	07c2                	slli	a5,a5,0x10
    39e0:	83c1                	srli	a5,a5,0x10
    39e2:	bf57f793          	andi	a5,a5,-1035
    39e6:	8fd9                	or	a5,a5,a4
    39e8:	a01e                	sh	a5,0(s0)
    39ea:	259a                	lhu	a4,8(a1)
    39ec:	25de                	lhu	a5,12(a1)
    39ee:	8fd9                	or	a5,a5,a4
    39f0:	a41e                	sh	a5,8(s0)
    39f2:	6145                	addi	sp,sp,48
    39f4:	f60fc06f          	j	154 <__riscv_restore_0>
    39f8:	21ea                	lhu	a0,6(a1)
    39fa:	6631                	lui	a2,0xc
    39fc:	167d                	addi	a2,a2,-1
    39fe:	02c51963          	bne	a0,a2,3a30 <I2C_Init+0xe4>
    3a02:	460d                	li	a2,3
    3a04:	02c686b3          	mul	a3,a3,a2
    3a08:	02d7d7b3          	divu	a5,a5,a3
    3a0c:	07c2                	slli	a5,a5,0x10
    3a0e:	83c1                	srli	a5,a5,0x10
    3a10:	01479693          	slli	a3,a5,0x14
    3a14:	e299                	bnez	a3,3a1a <I2C_Init+0xce>
    3a16:	0017e793          	ori	a5,a5,1
    3a1a:	66a1                	lui	a3,0x8
    3a1c:	8fd5                	or	a5,a5,a3
    3a1e:	12c00693          	li	a3,300
    3a22:	02d70733          	mul	a4,a4,a3
    3a26:	3e800693          	li	a3,1000
    3a2a:	02d74733          	div	a4,a4,a3
    3a2e:	bf59                	j	39c4 <I2C_Init+0x78>
    3a30:	4665                	li	a2,25
    3a32:	02c686b3          	mul	a3,a3,a2
    3a36:	02d7d7b3          	divu	a5,a5,a3
    3a3a:	6691                	lui	a3,0x4
    3a3c:	07c2                	slli	a5,a5,0x10
    3a3e:	83c1                	srli	a5,a5,0x10
    3a40:	8fd5                	or	a5,a5,a3
    3a42:	b7f9                	j	3a10 <I2C_Init+0xc4>

00003a44 <I2C_Cmd>:
    3a44:	211e                	lhu	a5,0(a0)
    3a46:	c589                	beqz	a1,3a50 <I2C_Cmd+0xc>
    3a48:	0017e793          	ori	a5,a5,1
    3a4c:	a11e                	sh	a5,0(a0)
    3a4e:	8082                	ret
    3a50:	07c2                	slli	a5,a5,0x10
    3a52:	83c1                	srli	a5,a5,0x10
    3a54:	9bf9                	andi	a5,a5,-2
    3a56:	07c2                	slli	a5,a5,0x10
    3a58:	83c1                	srli	a5,a5,0x10
    3a5a:	bfcd                	j	3a4c <I2C_Cmd+0x8>

00003a5c <I2C_GenerateSTART>:
    3a5c:	211e                	lhu	a5,0(a0)
    3a5e:	c589                	beqz	a1,3a68 <I2C_GenerateSTART+0xc>
    3a60:	1007e793          	ori	a5,a5,256
    3a64:	a11e                	sh	a5,0(a0)
    3a66:	8082                	ret
    3a68:	07c2                	slli	a5,a5,0x10
    3a6a:	83c1                	srli	a5,a5,0x10
    3a6c:	eff7f793          	andi	a5,a5,-257
    3a70:	07c2                	slli	a5,a5,0x10
    3a72:	83c1                	srli	a5,a5,0x10
    3a74:	bfc5                	j	3a64 <I2C_GenerateSTART+0x8>

00003a76 <I2C_GenerateSTOP>:
    3a76:	211e                	lhu	a5,0(a0)
    3a78:	c589                	beqz	a1,3a82 <I2C_GenerateSTOP+0xc>
    3a7a:	2007e793          	ori	a5,a5,512
    3a7e:	a11e                	sh	a5,0(a0)
    3a80:	8082                	ret
    3a82:	07c2                	slli	a5,a5,0x10
    3a84:	83c1                	srli	a5,a5,0x10
    3a86:	dff7f793          	andi	a5,a5,-513
    3a8a:	07c2                	slli	a5,a5,0x10
    3a8c:	83c1                	srli	a5,a5,0x10
    3a8e:	bfc5                	j	3a7e <I2C_GenerateSTOP+0x8>

00003a90 <I2C_AcknowledgeConfig>:
    3a90:	211e                	lhu	a5,0(a0)
    3a92:	c589                	beqz	a1,3a9c <I2C_AcknowledgeConfig+0xc>
    3a94:	4007e793          	ori	a5,a5,1024
    3a98:	a11e                	sh	a5,0(a0)
    3a9a:	8082                	ret
    3a9c:	07c2                	slli	a5,a5,0x10
    3a9e:	83c1                	srli	a5,a5,0x10
    3aa0:	bff7f793          	andi	a5,a5,-1025
    3aa4:	07c2                	slli	a5,a5,0x10
    3aa6:	83c1                	srli	a5,a5,0x10
    3aa8:	bfc5                	j	3a98 <I2C_AcknowledgeConfig+0x8>

00003aaa <I2C_SendData>:
    3aaa:	a90e                	sh	a1,16(a0)
    3aac:	8082                	ret

00003aae <I2C_Send7bitAddress>:
    3aae:	0fe5f793          	andi	a5,a1,254
    3ab2:	c219                	beqz	a2,3ab8 <I2C_Send7bitAddress+0xa>
    3ab4:	0015e793          	ori	a5,a1,1
    3ab8:	07c2                	slli	a5,a5,0x10
    3aba:	83c1                	srli	a5,a5,0x10
    3abc:	a91e                	sh	a5,16(a0)
    3abe:	8082                	ret

00003ac0 <I2C_CheckEvent>:
    3ac0:	295e                	lhu	a5,20(a0)
    3ac2:	2d0a                	lhu	a0,24(a0)
    3ac4:	0542                	slli	a0,a0,0x10
    3ac6:	8d5d                	or	a0,a0,a5
    3ac8:	8d6d                	and	a0,a0,a1
    3aca:	0522                	slli	a0,a0,0x8
    3acc:	8121                	srli	a0,a0,0x8
    3ace:	8d0d                	sub	a0,a0,a1
    3ad0:	00153513          	seqz	a0,a0
    3ad4:	8082                	ret

00003ad6 <I2C_GetFlagStatus>:
    3ad6:	1141                	addi	sp,sp,-16
    3ad8:	c402                	sw	zero,8(sp)
    3ada:	c602                	sw	zero,12(sp)
    3adc:	01c5d793          	srli	a5,a1,0x1c
    3ae0:	c62a                	sw	a0,12(sp)
    3ae2:	c43e                	sw	a5,8(sp)
    3ae4:	47a2                	lw	a5,8(sp)
    3ae6:	05a2                	slli	a1,a1,0x8
    3ae8:	81a1                	srli	a1,a1,0x8
    3aea:	cb99                	beqz	a5,3b00 <I2C_GetFlagStatus+0x2a>
    3aec:	47b2                	lw	a5,12(sp)
    3aee:	07d1                	addi	a5,a5,20
    3af0:	c63e                	sw	a5,12(sp)
    3af2:	47b2                	lw	a5,12(sp)
    3af4:	4388                	lw	a0,0(a5)
    3af6:	0141                	addi	sp,sp,16
    3af8:	8d6d                	and	a0,a0,a1
    3afa:	00a03533          	snez	a0,a0
    3afe:	8082                	ret
    3b00:	47b2                	lw	a5,12(sp)
    3b02:	81c1                	srli	a1,a1,0x10
    3b04:	07e1                	addi	a5,a5,24
    3b06:	b7ed                	j	3af0 <I2C_GetFlagStatus+0x1a>

00003b08 <NVIC_PriorityGroupConfig>:
    3b08:	8ca1a223          	sw	a0,-1852(gp) # 20000284 <NVIC_Priority_Group>
    3b0c:	8082                	ret

00003b0e <NVIC_Init>:
    3b0e:	8c41a703          	lw	a4,-1852(gp) # 20000284 <NVIC_Priority_Group>
    3b12:	4785                	li	a5,1
    3b14:	2114                	lbu	a3,0(a0)
    3b16:	02f71063          	bne	a4,a5,3b36 <NVIC_Init+0x28>
    3b1a:	311c                	lbu	a5,1(a0)
    3b1c:	02e79c63          	bne	a5,a4,3b54 <NVIC_Init+0x46>
    3b20:	213c                	lbu	a5,2(a0)
    3b22:	0796                	slli	a5,a5,0x5
    3b24:	f807e793          	ori	a5,a5,-128
    3b28:	e000e737          	lui	a4,0xe000e
    3b2c:	0ff7f793          	andi	a5,a5,255
    3b30:	9736                	add	a4,a4,a3
    3b32:	40f70023          	sb	a5,1024(a4) # e000e400 <_eusrstack+0xc0009400>
    3b36:	4705                	li	a4,1
    3b38:	0056d793          	srli	a5,a3,0x5
    3b3c:	00d71733          	sll	a4,a4,a3
    3b40:	4154                	lw	a3,4(a0)
    3b42:	ce89                	beqz	a3,3b5c <NVIC_Init+0x4e>
    3b44:	04078793          	addi	a5,a5,64 # 40011040 <_eusrstack+0x2000c040>
    3b48:	078a                	slli	a5,a5,0x2
    3b4a:	e000e6b7          	lui	a3,0xe000e
    3b4e:	97b6                	add	a5,a5,a3
    3b50:	c398                	sw	a4,0(a5)
    3b52:	8082                	ret
    3b54:	f3ed                	bnez	a5,3b36 <NVIC_Init+0x28>
    3b56:	213c                	lbu	a5,2(a0)
    3b58:	0796                	slli	a5,a5,0x5
    3b5a:	b7f9                	j	3b28 <NVIC_Init+0x1a>
    3b5c:	06078793          	addi	a5,a5,96
    3b60:	b7e5                	j	3b48 <NVIC_Init+0x3a>

00003b62 <RCC_USBCLKConfig>:
    3b62:	400217b7          	lui	a5,0x40021
    3b66:	43d8                	lw	a4,4(a5)
    3b68:	ff4006b7          	lui	a3,0xff400
    3b6c:	16fd                	addi	a3,a3,-1
    3b6e:	8f75                	and	a4,a4,a3
    3b70:	c3d8                	sw	a4,4(a5)
    3b72:	43d8                	lw	a4,4(a5)
    3b74:	055a                	slli	a0,a0,0x16
    3b76:	8d59                	or	a0,a0,a4
    3b78:	c3c8                	sw	a0,4(a5)
    3b7a:	8082                	ret

00003b7c <RCC_GetClocksFreq>:
    3b7c:	40021737          	lui	a4,0x40021
    3b80:	435c                	lw	a5,4(a4)
    3b82:	4691                	li	a3,4
    3b84:	8bb1                	andi	a5,a5,12
    3b86:	00d78563          	beq	a5,a3,3b90 <RCC_GetClocksFreq+0x14>
    3b8a:	46a1                	li	a3,8
    3b8c:	06d78263          	beq	a5,a3,3bf0 <RCC_GetClocksFreq+0x74>
    3b90:	007a17b7          	lui	a5,0x7a1
    3b94:	20078793          	addi	a5,a5,512 # 7a1200 <_data_lma+0x79a4d4>
    3b98:	c11c                	sw	a5,0(a0)
    3b9a:	40021637          	lui	a2,0x40021
    3b9e:	425c                	lw	a5,4(a2)
    3ba0:	20000737          	lui	a4,0x20000
    3ba4:	14c70713          	addi	a4,a4,332 # 2000014c <APBAHBPrescTable>
    3ba8:	8391                	srli	a5,a5,0x4
    3baa:	8bbd                	andi	a5,a5,15
    3bac:	97ba                	add	a5,a5,a4
    3bae:	2394                	lbu	a3,0(a5)
    3bb0:	411c                	lw	a5,0(a0)
    3bb2:	00d7d7b3          	srl	a5,a5,a3
    3bb6:	c15c                	sw	a5,4(a0)
    3bb8:	4254                	lw	a3,4(a2)
    3bba:	82a1                	srli	a3,a3,0x8
    3bbc:	8a9d                	andi	a3,a3,7
    3bbe:	96ba                	add	a3,a3,a4
    3bc0:	2294                	lbu	a3,0(a3)
    3bc2:	00d7d6b3          	srl	a3,a5,a3
    3bc6:	c514                	sw	a3,8(a0)
    3bc8:	4254                	lw	a3,4(a2)
    3bca:	82ad                	srli	a3,a3,0xb
    3bcc:	8a9d                	andi	a3,a3,7
    3bce:	9736                	add	a4,a4,a3
    3bd0:	2318                	lbu	a4,0(a4)
    3bd2:	00e7d7b3          	srl	a5,a5,a4
    3bd6:	c55c                	sw	a5,12(a0)
    3bd8:	4258                	lw	a4,4(a2)
    3bda:	8339                	srli	a4,a4,0xe
    3bdc:	00377693          	andi	a3,a4,3
    3be0:	81818713          	addi	a4,gp,-2024 # 200001d8 <ADCPrescTable>
    3be4:	9736                	add	a4,a4,a3
    3be6:	2318                	lbu	a4,0(a4)
    3be8:	02e7d7b3          	divu	a5,a5,a4
    3bec:	c91c                	sw	a5,16(a0)
    3bee:	8082                	ret
    3bf0:	435c                	lw	a5,4(a4)
    3bf2:	4358                	lw	a4,4(a4)
    3bf4:	66c1                	lui	a3,0x10
    3bf6:	83c9                	srli	a5,a5,0x12
    3bf8:	8bbd                	andi	a5,a5,15
    3bfa:	8f75                	and	a4,a4,a3
    3bfc:	0789                	addi	a5,a5,2
    3bfe:	46c5                	li	a3,17
    3c00:	00d79363          	bne	a5,a3,3c06 <RCC_GetClocksFreq+0x8a>
    3c04:	47c9                	li	a5,18
    3c06:	ef01                	bnez	a4,3c1e <RCC_GetClocksFreq+0xa2>
    3c08:	40024737          	lui	a4,0x40024
    3c0c:	80072703          	lw	a4,-2048(a4) # 40023800 <_eusrstack+0x2001e800>
    3c10:	8b41                	andi	a4,a4,16
    3c12:	cf09                	beqz	a4,3c2c <RCC_GetClocksFreq+0xb0>
    3c14:	007a1737          	lui	a4,0x7a1
    3c18:	20070713          	addi	a4,a4,512 # 7a1200 <_data_lma+0x79a4d4>
    3c1c:	a821                	j	3c34 <RCC_GetClocksFreq+0xb8>
    3c1e:	40021737          	lui	a4,0x40021
    3c22:	4358                	lw	a4,4(a4)
    3c24:	00e71693          	slli	a3,a4,0xe
    3c28:	fe06d6e3          	bgez	a3,3c14 <RCC_GetClocksFreq+0x98>
    3c2c:	003d1737          	lui	a4,0x3d1
    3c30:	90070713          	addi	a4,a4,-1792 # 3d0900 <_data_lma+0x3c9bd4>
    3c34:	02e787b3          	mul	a5,a5,a4
    3c38:	b785                	j	3b98 <RCC_GetClocksFreq+0x1c>

00003c3a <RCC_AHBPeriphClockCmd>:
    3c3a:	c599                	beqz	a1,3c48 <RCC_AHBPeriphClockCmd+0xe>
    3c3c:	40021737          	lui	a4,0x40021
    3c40:	4b5c                	lw	a5,20(a4)
    3c42:	8d5d                	or	a0,a0,a5
    3c44:	cb48                	sw	a0,20(a4)
    3c46:	8082                	ret
    3c48:	400217b7          	lui	a5,0x40021
    3c4c:	4bd8                	lw	a4,20(a5)
    3c4e:	fff54513          	not	a0,a0
    3c52:	8d79                	and	a0,a0,a4
    3c54:	cbc8                	sw	a0,20(a5)
    3c56:	8082                	ret

00003c58 <RCC_APB2PeriphClockCmd>:
    3c58:	c599                	beqz	a1,3c66 <RCC_APB2PeriphClockCmd+0xe>
    3c5a:	40021737          	lui	a4,0x40021
    3c5e:	4f1c                	lw	a5,24(a4)
    3c60:	8d5d                	or	a0,a0,a5
    3c62:	cf08                	sw	a0,24(a4)
    3c64:	8082                	ret
    3c66:	400217b7          	lui	a5,0x40021
    3c6a:	4f98                	lw	a4,24(a5)
    3c6c:	fff54513          	not	a0,a0
    3c70:	8d79                	and	a0,a0,a4
    3c72:	cf88                	sw	a0,24(a5)
    3c74:	8082                	ret

00003c76 <RCC_APB1PeriphClockCmd>:
    3c76:	c599                	beqz	a1,3c84 <RCC_APB1PeriphClockCmd+0xe>
    3c78:	40021737          	lui	a4,0x40021
    3c7c:	4f5c                	lw	a5,28(a4)
    3c7e:	8d5d                	or	a0,a0,a5
    3c80:	cf48                	sw	a0,28(a4)
    3c82:	8082                	ret
    3c84:	400217b7          	lui	a5,0x40021
    3c88:	4fd8                	lw	a4,28(a5)
    3c8a:	fff54513          	not	a0,a0
    3c8e:	8d79                	and	a0,a0,a4
    3c90:	cfc8                	sw	a0,28(a5)
    3c92:	8082                	ret

00003c94 <TIM_TimeBaseInit>:
    3c94:	211e                	lhu	a5,0(a0)
    3c96:	40013737          	lui	a4,0x40013
    3c9a:	c0070713          	addi	a4,a4,-1024 # 40012c00 <_eusrstack+0x2000dc00>
    3c9e:	07c2                	slli	a5,a5,0x10
    3ca0:	83c1                	srli	a5,a5,0x10
    3ca2:	02e50463          	beq	a0,a4,3cca <TIM_TimeBaseInit+0x36>
    3ca6:	40000737          	lui	a4,0x40000
    3caa:	02e50063          	beq	a0,a4,3cca <TIM_TimeBaseInit+0x36>
    3cae:	40070713          	addi	a4,a4,1024 # 40000400 <_eusrstack+0x1fffb400>
    3cb2:	00e50c63          	beq	a0,a4,3cca <TIM_TimeBaseInit+0x36>
    3cb6:	40001737          	lui	a4,0x40001
    3cba:	80070693          	addi	a3,a4,-2048 # 40000800 <_eusrstack+0x1fffb800>
    3cbe:	00d50663          	beq	a0,a3,3cca <TIM_TimeBaseInit+0x36>
    3cc2:	c0070713          	addi	a4,a4,-1024
    3cc6:	00e51663          	bne	a0,a4,3cd2 <TIM_TimeBaseInit+0x3e>
    3cca:	21ba                	lhu	a4,2(a1)
    3ccc:	f8f7f793          	andi	a5,a5,-113
    3cd0:	8fd9                	or	a5,a5,a4
    3cd2:	21fa                	lhu	a4,6(a1)
    3cd4:	cff7f793          	andi	a5,a5,-769
    3cd8:	07c2                	slli	a5,a5,0x10
    3cda:	83c1                	srli	a5,a5,0x10
    3cdc:	8fd9                	or	a5,a5,a4
    3cde:	a11e                	sh	a5,0(a0)
    3ce0:	21de                	lhu	a5,4(a1)
    3ce2:	b55e                	sh	a5,44(a0)
    3ce4:	219e                	lhu	a5,0(a1)
    3ce6:	b51e                	sh	a5,40(a0)
    3ce8:	400137b7          	lui	a5,0x40013
    3cec:	c0078793          	addi	a5,a5,-1024 # 40012c00 <_eusrstack+0x2000dc00>
    3cf0:	00f51463          	bne	a0,a5,3cf8 <TIM_TimeBaseInit+0x64>
    3cf4:	259c                	lbu	a5,8(a1)
    3cf6:	b91e                	sh	a5,48(a0)
    3cf8:	4785                	li	a5,1
    3cfa:	a95e                	sh	a5,20(a0)
    3cfc:	8082                	ret

00003cfe <TIM_Cmd>:
    3cfe:	211e                	lhu	a5,0(a0)
    3d00:	c589                	beqz	a1,3d0a <TIM_Cmd+0xc>
    3d02:	0017e793          	ori	a5,a5,1
    3d06:	a11e                	sh	a5,0(a0)
    3d08:	8082                	ret
    3d0a:	07c2                	slli	a5,a5,0x10
    3d0c:	83c1                	srli	a5,a5,0x10
    3d0e:	9bf9                	andi	a5,a5,-2
    3d10:	07c2                	slli	a5,a5,0x10
    3d12:	83c1                	srli	a5,a5,0x10
    3d14:	bfcd                	j	3d06 <TIM_Cmd+0x8>

00003d16 <TIM_ITConfig>:
    3d16:	255e                	lhu	a5,12(a0)
    3d18:	c601                	beqz	a2,3d20 <TIM_ITConfig+0xa>
    3d1a:	8ddd                	or	a1,a1,a5
    3d1c:	a54e                	sh	a1,12(a0)
    3d1e:	8082                	ret
    3d20:	fff5c593          	not	a1,a1
    3d24:	8dfd                	and	a1,a1,a5
    3d26:	bfdd                	j	3d1c <TIM_ITConfig+0x6>

00003d28 <TIM_GetITStatus>:
    3d28:	291e                	lhu	a5,16(a0)
    3d2a:	254a                	lhu	a0,12(a0)
    3d2c:	8fed                	and	a5,a5,a1
    3d2e:	0542                	slli	a0,a0,0x10
    3d30:	8141                	srli	a0,a0,0x10
    3d32:	c789                	beqz	a5,3d3c <TIM_GetITStatus+0x14>
    3d34:	8d6d                	and	a0,a0,a1
    3d36:	00a03533          	snez	a0,a0
    3d3a:	8082                	ret
    3d3c:	4501                	li	a0,0
    3d3e:	8082                	ret

00003d40 <TIM_ClearITPendingBit>:
    3d40:	fff5c593          	not	a1,a1
    3d44:	05c2                	slli	a1,a1,0x10
    3d46:	81c1                	srli	a1,a1,0x10
    3d48:	a90e                	sh	a1,16(a0)
    3d4a:	8082                	ret

00003d4c <USART_Init>:
    3d4c:	be4fc2ef          	jal	t0,130 <__riscv_save_0>
    3d50:	2916                	lhu	a3,16(a0)
    3d52:	77f5                	lui	a5,0xffffd
    3d54:	17fd                	addi	a5,a5,-1
    3d56:	8ff5                	and	a5,a5,a3
    3d58:	21f6                	lhu	a3,6(a1)
    3d5a:	25da                	lhu	a4,12(a1)
    3d5c:	7179                	addi	sp,sp,-48
    3d5e:	8fd5                	or	a5,a5,a3
    3d60:	a91e                	sh	a5,16(a0)
    3d62:	2556                	lhu	a3,12(a0)
    3d64:	77fd                	lui	a5,0xfffff
    3d66:	9f378793          	addi	a5,a5,-1549 # ffffe9f3 <_eusrstack+0xdfff99f3>
    3d6a:	8ff5                	and	a5,a5,a3
    3d6c:	21d6                	lhu	a3,4(a1)
    3d6e:	842a                	mv	s0,a0
    3d70:	c62e                	sw	a1,12(sp)
    3d72:	8fd5                	or	a5,a5,a3
    3d74:	2596                	lhu	a3,8(a1)
    3d76:	8fd5                	or	a5,a5,a3
    3d78:	25b6                	lhu	a3,10(a1)
    3d7a:	8fd5                	or	a5,a5,a3
    3d7c:	a55e                	sh	a5,12(a0)
    3d7e:	295e                	lhu	a5,20(a0)
    3d80:	07c2                	slli	a5,a5,0x10
    3d82:	83c1                	srli	a5,a5,0x10
    3d84:	cff7f793          	andi	a5,a5,-769
    3d88:	8fd9                	or	a5,a5,a4
    3d8a:	a95e                	sh	a5,20(a0)
    3d8c:	0868                	addi	a0,sp,28
    3d8e:	defff0ef          	jal	ra,3b7c <RCC_GetClocksFreq>
    3d92:	400147b7          	lui	a5,0x40014
    3d96:	80078793          	addi	a5,a5,-2048 # 40013800 <_eusrstack+0x2000e800>
    3d9a:	45b2                	lw	a1,12(sp)
    3d9c:	02f41e63          	bne	s0,a5,3dd8 <USART_Init+0x8c>
    3da0:	57a2                	lw	a5,40(sp)
    3da2:	4765                	li	a4,25
    3da4:	02e787b3          	mul	a5,a5,a4
    3da8:	4198                	lw	a4,0(a1)
    3daa:	06400693          	li	a3,100
    3dae:	070a                	slli	a4,a4,0x2
    3db0:	02e7d7b3          	divu	a5,a5,a4
    3db4:	02d7d733          	divu	a4,a5,a3
    3db8:	02d7f7b3          	remu	a5,a5,a3
    3dbc:	0712                	slli	a4,a4,0x4
    3dbe:	0792                	slli	a5,a5,0x4
    3dc0:	03278793          	addi	a5,a5,50
    3dc4:	02d7d7b3          	divu	a5,a5,a3
    3dc8:	8bbd                	andi	a5,a5,15
    3dca:	8fd9                	or	a5,a5,a4
    3dcc:	07c2                	slli	a5,a5,0x10
    3dce:	83c1                	srli	a5,a5,0x10
    3dd0:	a41e                	sh	a5,8(s0)
    3dd2:	6145                	addi	sp,sp,48
    3dd4:	b80fc06f          	j	154 <__riscv_restore_0>
    3dd8:	5792                	lw	a5,36(sp)
    3dda:	b7e1                	j	3da2 <USART_Init+0x56>

00003ddc <USART_Cmd>:
    3ddc:	c591                	beqz	a1,3de8 <USART_Cmd+0xc>
    3dde:	255e                	lhu	a5,12(a0)
    3de0:	6709                	lui	a4,0x2
    3de2:	8fd9                	or	a5,a5,a4
    3de4:	a55e                	sh	a5,12(a0)
    3de6:	8082                	ret
    3de8:	255a                	lhu	a4,12(a0)
    3dea:	77f9                	lui	a5,0xffffe
    3dec:	17fd                	addi	a5,a5,-1
    3dee:	8ff9                	and	a5,a5,a4
    3df0:	bfd5                	j	3de4 <USART_Cmd+0x8>

00003df2 <USART_SendData>:
    3df2:	1ff5f593          	andi	a1,a1,511
    3df6:	a14e                	sh	a1,4(a0)
    3df8:	8082                	ret

00003dfa <USART_GetFlagStatus>:
    3dfa:	210a                	lhu	a0,0(a0)
    3dfc:	8d6d                	and	a0,a0,a1
    3dfe:	00a03533          	snez	a0,a0
    3e02:	8082                	ret

00003e04 <Delay_Init>:
    3e04:	8141a783          	lw	a5,-2028(gp) # 200001d4 <SystemCoreClock>
    3e08:	007a1737          	lui	a4,0x7a1
    3e0c:	20070713          	addi	a4,a4,512 # 7a1200 <_data_lma+0x79a4d4>
    3e10:	02e7d7b3          	divu	a5,a5,a4
    3e14:	0ff7f793          	andi	a5,a5,255
    3e18:	8cf18523          	sb	a5,-1846(gp) # 2000028a <p_us>
    3e1c:	3e800713          	li	a4,1000
    3e20:	02e787b3          	mul	a5,a5,a4
    3e24:	8cf19423          	sh	a5,-1848(gp) # 20000288 <p_ms>
    3e28:	8082                	ret

00003e2a <Delay_Us>:
    3e2a:	e000f7b7          	lui	a5,0xe000f
    3e2e:	43d8                	lw	a4,4(a5)
    3e30:	4681                	li	a3,0
    3e32:	9b79                	andi	a4,a4,-2
    3e34:	c3d8                	sw	a4,4(a5)
    3e36:	8ca1c703          	lbu	a4,-1846(gp) # 2000028a <p_us>
    3e3a:	02a70633          	mul	a2,a4,a0
    3e3e:	cb90                	sw	a2,16(a5)
    3e40:	cbd4                	sw	a3,20(a5)
    3e42:	4398                	lw	a4,0(a5)
    3e44:	01076713          	ori	a4,a4,16
    3e48:	c398                	sw	a4,0(a5)
    3e4a:	4398                	lw	a4,0(a5)
    3e4c:	02176713          	ori	a4,a4,33
    3e50:	c398                	sw	a4,0(a5)
    3e52:	43d8                	lw	a4,4(a5)
    3e54:	8b05                	andi	a4,a4,1
    3e56:	df75                	beqz	a4,3e52 <Delay_Us+0x28>
    3e58:	4398                	lw	a4,0(a5)
    3e5a:	9b79                	andi	a4,a4,-2
    3e5c:	c398                	sw	a4,0(a5)
    3e5e:	8082                	ret

00003e60 <Delay_Ms>:
    3e60:	e000f7b7          	lui	a5,0xe000f
    3e64:	43d8                	lw	a4,4(a5)
    3e66:	4681                	li	a3,0
    3e68:	9b79                	andi	a4,a4,-2
    3e6a:	c3d8                	sw	a4,4(a5)
    3e6c:	8c81d703          	lhu	a4,-1848(gp) # 20000288 <p_ms>
    3e70:	02a70633          	mul	a2,a4,a0
    3e74:	cb90                	sw	a2,16(a5)
    3e76:	cbd4                	sw	a3,20(a5)
    3e78:	4398                	lw	a4,0(a5)
    3e7a:	01076713          	ori	a4,a4,16
    3e7e:	c398                	sw	a4,0(a5)
    3e80:	4398                	lw	a4,0(a5)
    3e82:	02176713          	ori	a4,a4,33
    3e86:	c398                	sw	a4,0(a5)
    3e88:	43d8                	lw	a4,4(a5)
    3e8a:	8b05                	andi	a4,a4,1
    3e8c:	df75                	beqz	a4,3e88 <Delay_Ms+0x28>
    3e8e:	4398                	lw	a4,0(a5)
    3e90:	9b79                	andi	a4,a4,-2
    3e92:	c398                	sw	a4,0(a5)
    3e94:	8082                	ret

00003e96 <USART_Printf_Init>:
    3e96:	a9afc2ef          	jal	t0,130 <__riscv_save_0>
    3e9a:	842a                	mv	s0,a0
    3e9c:	6511                	lui	a0,0x4
    3e9e:	1101                	addi	sp,sp,-32
    3ea0:	4585                	li	a1,1
    3ea2:	0511                	addi	a0,a0,4
    3ea4:	db5ff0ef          	jal	ra,3c58 <RCC_APB2PeriphClockCmd>
    3ea8:	20000793          	li	a5,512
    3eac:	827c                	sh	a5,4(sp)
    3eae:	40011537          	lui	a0,0x40011
    3eb2:	478d                	li	a5,3
    3eb4:	c43e                	sw	a5,8(sp)
    3eb6:	004c                	addi	a1,sp,4
    3eb8:	47e1                	li	a5,24
    3eba:	80050513          	addi	a0,a0,-2048 # 40010800 <_eusrstack+0x2000b800>
    3ebe:	c63e                	sw	a5,12(sp)
    3ec0:	94dff0ef          	jal	ra,380c <GPIO_Init>
    3ec4:	c822                	sw	s0,16(sp)
    3ec6:	40014437          	lui	s0,0x40014
    3eca:	000807b7          	lui	a5,0x80
    3ece:	080c                	addi	a1,sp,16
    3ed0:	80040513          	addi	a0,s0,-2048 # 40013800 <_eusrstack+0x2000e800>
    3ed4:	cc3e                	sw	a5,24(sp)
    3ed6:	ca02                	sw	zero,20(sp)
    3ed8:	00011e23          	sh	zero,28(sp)
    3edc:	e71ff0ef          	jal	ra,3d4c <USART_Init>
    3ee0:	4585                	li	a1,1
    3ee2:	80040513          	addi	a0,s0,-2048
    3ee6:	ef7ff0ef          	jal	ra,3ddc <USART_Cmd>
    3eea:	6105                	addi	sp,sp,32
    3eec:	a68fc06f          	j	154 <__riscv_restore_0>

00003ef0 <_write>:
    3ef0:	a26fc2ef          	jal	t0,116 <__riscv_save_4>
    3ef4:	400144b7          	lui	s1,0x40014
    3ef8:	89ae                	mv	s3,a1
    3efa:	8932                	mv	s2,a2
    3efc:	4401                	li	s0,0
    3efe:	80048493          	addi	s1,s1,-2048 # 40013800 <_eusrstack+0x2000e800>
    3f02:	01244563          	blt	s0,s2,3f0c <_write+0x1c>
    3f06:	854a                	mv	a0,s2
    3f08:	a42fc06f          	j	14a <__riscv_restore_4>
    3f0c:	04000593          	li	a1,64
    3f10:	8526                	mv	a0,s1
    3f12:	ee9ff0ef          	jal	ra,3dfa <USART_GetFlagStatus>
    3f16:	d97d                	beqz	a0,3f0c <_write+0x1c>
    3f18:	008987b3          	add	a5,s3,s0
    3f1c:	00078583          	lb	a1,0(a5) # 80000 <_data_lma+0x792d4>
    3f20:	8526                	mv	a0,s1
    3f22:	0405                	addi	s0,s0,1
    3f24:	05c2                	slli	a1,a1,0x10
    3f26:	81c1                	srli	a1,a1,0x10
    3f28:	ecbff0ef          	jal	ra,3df2 <USART_SendData>
    3f2c:	bfd9                	j	3f02 <_write+0x12>

00003f2e <_sbrk>:
    3f2e:	81c18713          	addi	a4,gp,-2020 # 200001dc <curbrk.4673>
    3f32:	431c                	lw	a5,0(a4)
    3f34:	200026b7          	lui	a3,0x20002
    3f38:	8a868693          	addi	a3,a3,-1880 # 200018a8 <_ebss>
    3f3c:	953e                	add	a0,a0,a5
    3f3e:	00d56b63          	bltu	a0,a3,3f54 <_sbrk+0x26>
    3f42:	200056b7          	lui	a3,0x20005
    3f46:	80068693          	addi	a3,a3,-2048 # 20004800 <_heap_end>
    3f4a:	00a6e563          	bltu	a3,a0,3f54 <_sbrk+0x26>
    3f4e:	c308                	sw	a0,0(a4)
    3f50:	853e                	mv	a0,a5
    3f52:	8082                	ret
    3f54:	57fd                	li	a5,-1
    3f56:	bfed                	j	3f50 <_sbrk+0x22>

00003f58 <memchr>:
    3f58:	0ff5f593          	andi	a1,a1,255
    3f5c:	962a                	add	a2,a2,a0
    3f5e:	00c51463          	bne	a0,a2,3f66 <memchr+0xe>
    3f62:	4501                	li	a0,0
    3f64:	8082                	ret
    3f66:	211c                	lbu	a5,0(a0)
    3f68:	feb78ee3          	beq	a5,a1,3f64 <memchr+0xc>
    3f6c:	0505                	addi	a0,a0,1
    3f6e:	bfc5                	j	3f5e <memchr+0x6>

00003f70 <memcpy>:
    3f70:	00a5c7b3          	xor	a5,a1,a0
    3f74:	8b8d                	andi	a5,a5,3
    3f76:	00c50733          	add	a4,a0,a2
    3f7a:	e781                	bnez	a5,3f82 <memcpy+0x12>
    3f7c:	478d                	li	a5,3
    3f7e:	00c7ed63          	bltu	a5,a2,3f98 <memcpy+0x28>
    3f82:	87aa                	mv	a5,a0
    3f84:	08e57e63          	bgeu	a0,a4,4020 <memcpy+0xb0>
    3f88:	2194                	lbu	a3,0(a1)
    3f8a:	0785                	addi	a5,a5,1
    3f8c:	0585                	addi	a1,a1,1
    3f8e:	fed78fa3          	sb	a3,-1(a5)
    3f92:	fee7ebe3          	bltu	a5,a4,3f88 <memcpy+0x18>
    3f96:	8082                	ret
    3f98:	00357693          	andi	a3,a0,3
    3f9c:	87aa                	mv	a5,a0
    3f9e:	ca89                	beqz	a3,3fb0 <memcpy+0x40>
    3fa0:	2194                	lbu	a3,0(a1)
    3fa2:	0785                	addi	a5,a5,1
    3fa4:	0585                	addi	a1,a1,1
    3fa6:	fed78fa3          	sb	a3,-1(a5)
    3faa:	0037f693          	andi	a3,a5,3
    3fae:	bfc5                	j	3f9e <memcpy+0x2e>
    3fb0:	ffc77693          	andi	a3,a4,-4
    3fb4:	fe068613          	addi	a2,a3,-32
    3fb8:	06c7f063          	bgeu	a5,a2,4018 <memcpy+0xa8>
    3fbc:	0005a383          	lw	t2,0(a1)
    3fc0:	0045a283          	lw	t0,4(a1)
    3fc4:	0085af83          	lw	t6,8(a1)
    3fc8:	00c5af03          	lw	t5,12(a1)
    3fcc:	0105ae83          	lw	t4,16(a1)
    3fd0:	0145ae03          	lw	t3,20(a1)
    3fd4:	0185a303          	lw	t1,24(a1)
    3fd8:	01c5a883          	lw	a7,28(a1)
    3fdc:	02458593          	addi	a1,a1,36
    3fe0:	0077a023          	sw	t2,0(a5)
    3fe4:	ffc5a803          	lw	a6,-4(a1)
    3fe8:	0057a223          	sw	t0,4(a5)
    3fec:	01f7a423          	sw	t6,8(a5)
    3ff0:	01e7a623          	sw	t5,12(a5)
    3ff4:	01d7a823          	sw	t4,16(a5)
    3ff8:	01c7aa23          	sw	t3,20(a5)
    3ffc:	0067ac23          	sw	t1,24(a5)
    4000:	0117ae23          	sw	a7,28(a5)
    4004:	02478793          	addi	a5,a5,36
    4008:	ff07ae23          	sw	a6,-4(a5)
    400c:	b775                	j	3fb8 <memcpy+0x48>
    400e:	4190                	lw	a2,0(a1)
    4010:	0791                	addi	a5,a5,4
    4012:	0591                	addi	a1,a1,4
    4014:	fec7ae23          	sw	a2,-4(a5)
    4018:	fed7ebe3          	bltu	a5,a3,400e <memcpy+0x9e>
    401c:	f6e7e6e3          	bltu	a5,a4,3f88 <memcpy+0x18>
    4020:	8082                	ret

00004022 <iprintf>:
    4022:	7139                	addi	sp,sp,-64
    4024:	da3e                	sw	a5,52(sp)
    4026:	d22e                	sw	a1,36(sp)
    4028:	d432                	sw	a2,40(sp)
    402a:	d636                	sw	a3,44(sp)
    402c:	d83a                	sw	a4,48(sp)
    402e:	dc42                	sw	a6,56(sp)
    4030:	de46                	sw	a7,60(sp)
    4032:	82018793          	addi	a5,gp,-2016 # 200001e0 <_impure_ptr>
    4036:	cc22                	sw	s0,24(sp)
    4038:	4380                	lw	s0,0(a5)
    403a:	ca26                	sw	s1,20(sp)
    403c:	ce06                	sw	ra,28(sp)
    403e:	84aa                	mv	s1,a0
    4040:	c409                	beqz	s0,404a <iprintf+0x28>
    4042:	4c1c                	lw	a5,24(s0)
    4044:	e399                	bnez	a5,404a <iprintf+0x28>
    4046:	8522                	mv	a0,s0
    4048:	239d                	jal	45ae <__sinit>
    404a:	440c                	lw	a1,8(s0)
    404c:	1054                	addi	a3,sp,36
    404e:	8626                	mv	a2,s1
    4050:	8522                	mv	a0,s0
    4052:	c636                	sw	a3,12(sp)
    4054:	4f5000ef          	jal	ra,4d48 <_vfiprintf_r>
    4058:	40f2                	lw	ra,28(sp)
    405a:	4462                	lw	s0,24(sp)
    405c:	44d2                	lw	s1,20(sp)
    405e:	6121                	addi	sp,sp,64
    4060:	8082                	ret

00004062 <_puts_r>:
    4062:	1101                	addi	sp,sp,-32
    4064:	ca26                	sw	s1,20(sp)
    4066:	c84a                	sw	s2,16(sp)
    4068:	ce06                	sw	ra,28(sp)
    406a:	cc22                	sw	s0,24(sp)
    406c:	c64e                	sw	s3,12(sp)
    406e:	c452                	sw	s4,8(sp)
    4070:	84aa                	mv	s1,a0
    4072:	892e                	mv	s2,a1
    4074:	c501                	beqz	a0,407c <_puts_r+0x1a>
    4076:	4d1c                	lw	a5,24(a0)
    4078:	e391                	bnez	a5,407c <_puts_r+0x1a>
    407a:	2b15                	jal	45ae <__sinit>
    407c:	4c9c                	lw	a5,24(s1)
    407e:	4480                	lw	s0,8(s1)
    4080:	e399                	bnez	a5,4086 <_puts_r+0x24>
    4082:	8526                	mv	a0,s1
    4084:	232d                	jal	45ae <__sinit>
    4086:	00003797          	auipc	a5,0x3
    408a:	c2a78793          	addi	a5,a5,-982 # 6cb0 <__sf_fake_stdin>
    408e:	02f41b63          	bne	s0,a5,40c4 <_puts_r+0x62>
    4092:	40c0                	lw	s0,4(s1)
    4094:	245e                	lhu	a5,12(s0)
    4096:	8ba1                	andi	a5,a5,8
    4098:	c7b1                	beqz	a5,40e4 <_puts_r+0x82>
    409a:	481c                	lw	a5,16(s0)
    409c:	c7a1                	beqz	a5,40e4 <_puts_r+0x82>
    409e:	59fd                	li	s3,-1
    40a0:	4a29                	li	s4,10
    40a2:	441c                	lw	a5,8(s0)
    40a4:	00094583          	lbu	a1,0(s2)
    40a8:	17fd                	addi	a5,a5,-1
    40aa:	e9b1                	bnez	a1,40fe <_puts_r+0x9c>
    40ac:	c41c                	sw	a5,8(s0)
    40ae:	0607dd63          	bgez	a5,4128 <_puts_r+0xc6>
    40b2:	8622                	mv	a2,s0
    40b4:	45a9                	li	a1,10
    40b6:	8526                	mv	a0,s1
    40b8:	28cd                	jal	41aa <__swbuf_r>
    40ba:	57fd                	li	a5,-1
    40bc:	02f50863          	beq	a0,a5,40ec <_puts_r+0x8a>
    40c0:	4529                	li	a0,10
    40c2:	a035                	j	40ee <_puts_r+0x8c>
    40c4:	00003797          	auipc	a5,0x3
    40c8:	c0c78793          	addi	a5,a5,-1012 # 6cd0 <__sf_fake_stdout>
    40cc:	00f41463          	bne	s0,a5,40d4 <_puts_r+0x72>
    40d0:	4480                	lw	s0,8(s1)
    40d2:	b7c9                	j	4094 <_puts_r+0x32>
    40d4:	00003797          	auipc	a5,0x3
    40d8:	bbc78793          	addi	a5,a5,-1092 # 6c90 <__sf_fake_stderr>
    40dc:	faf41ce3          	bne	s0,a5,4094 <_puts_r+0x32>
    40e0:	44c0                	lw	s0,12(s1)
    40e2:	bf4d                	j	4094 <_puts_r+0x32>
    40e4:	85a2                	mv	a1,s0
    40e6:	8526                	mv	a0,s1
    40e8:	2abd                	jal	4266 <__swsetup_r>
    40ea:	d955                	beqz	a0,409e <_puts_r+0x3c>
    40ec:	557d                	li	a0,-1
    40ee:	40f2                	lw	ra,28(sp)
    40f0:	4462                	lw	s0,24(sp)
    40f2:	44d2                	lw	s1,20(sp)
    40f4:	4942                	lw	s2,16(sp)
    40f6:	49b2                	lw	s3,12(sp)
    40f8:	4a22                	lw	s4,8(sp)
    40fa:	6105                	addi	sp,sp,32
    40fc:	8082                	ret
    40fe:	c41c                	sw	a5,8(s0)
    4100:	0905                	addi	s2,s2,1
    4102:	0007d763          	bgez	a5,4110 <_puts_r+0xae>
    4106:	4c18                	lw	a4,24(s0)
    4108:	00e7ca63          	blt	a5,a4,411c <_puts_r+0xba>
    410c:	01458863          	beq	a1,s4,411c <_puts_r+0xba>
    4110:	401c                	lw	a5,0(s0)
    4112:	00178713          	addi	a4,a5,1
    4116:	c018                	sw	a4,0(s0)
    4118:	a38c                	sb	a1,0(a5)
    411a:	b761                	j	40a2 <_puts_r+0x40>
    411c:	8622                	mv	a2,s0
    411e:	8526                	mv	a0,s1
    4120:	2069                	jal	41aa <__swbuf_r>
    4122:	f93510e3          	bne	a0,s3,40a2 <_puts_r+0x40>
    4126:	b7d9                	j	40ec <_puts_r+0x8a>
    4128:	401c                	lw	a5,0(s0)
    412a:	00178713          	addi	a4,a5,1
    412e:	c018                	sw	a4,0(s0)
    4130:	4729                	li	a4,10
    4132:	a398                	sb	a4,0(a5)
    4134:	b771                	j	40c0 <_puts_r+0x5e>

00004136 <puts>:
    4136:	82018793          	addi	a5,gp,-2016 # 200001e0 <_impure_ptr>
    413a:	85aa                	mv	a1,a0
    413c:	4388                	lw	a0,0(a5)
    413e:	f25ff06f          	j	4062 <_puts_r>

00004142 <siprintf>:
    4142:	7135                	addi	sp,sp,-160
    4144:	cb3e                	sw	a5,148(sp)
    4146:	800007b7          	lui	a5,0x80000
    414a:	fff7c793          	not	a5,a5
    414e:	ce3e                	sw	a5,28(sp)
    4150:	c83e                	sw	a5,16(sp)
    4152:	77c1                	lui	a5,0xffff0
    4154:	20878793          	addi	a5,a5,520 # ffff0208 <_eusrstack+0xdffeb208>
    4158:	c532                	sw	a2,136(sp)
    415a:	c736                	sw	a3,140(sp)
    415c:	c93a                	sw	a4,144(sp)
    415e:	cd42                	sw	a6,152(sp)
    4160:	cf46                	sw	a7,156(sp)
    4162:	ca3e                	sw	a5,20(sp)
    4164:	82018793          	addi	a5,gp,-2016 # 200001e0 <_impure_ptr>
    4168:	c42a                	sw	a0,8(sp)
    416a:	cc2a                	sw	a0,24(sp)
    416c:	4388                	lw	a0,0(a5)
    416e:	0134                	addi	a3,sp,136
    4170:	862e                	mv	a2,a1
    4172:	002c                	addi	a1,sp,8
    4174:	de86                	sw	ra,124(sp)
    4176:	c236                	sw	a3,4(sp)
    4178:	0fd000ef          	jal	ra,4a74 <_svfiprintf_r>
    417c:	47a2                	lw	a5,8(sp)
    417e:	00078023          	sb	zero,0(a5)
    4182:	50f6                	lw	ra,124(sp)
    4184:	610d                	addi	sp,sp,160
    4186:	8082                	ret

00004188 <strcpy>:
    4188:	87aa                	mv	a5,a0
    418a:	2198                	lbu	a4,0(a1)
    418c:	0785                	addi	a5,a5,1
    418e:	0585                	addi	a1,a1,1
    4190:	fee78fa3          	sb	a4,-1(a5)
    4194:	fb7d                	bnez	a4,418a <strcpy+0x2>
    4196:	8082                	ret

00004198 <strlen>:
    4198:	87aa                	mv	a5,a0
    419a:	0785                	addi	a5,a5,1
    419c:	fff7c703          	lbu	a4,-1(a5)
    41a0:	ff6d                	bnez	a4,419a <strlen+0x2>
    41a2:	40a78533          	sub	a0,a5,a0
    41a6:	157d                	addi	a0,a0,-1
    41a8:	8082                	ret

000041aa <__swbuf_r>:
    41aa:	1101                	addi	sp,sp,-32
    41ac:	cc22                	sw	s0,24(sp)
    41ae:	ca26                	sw	s1,20(sp)
    41b0:	c84a                	sw	s2,16(sp)
    41b2:	ce06                	sw	ra,28(sp)
    41b4:	c64e                	sw	s3,12(sp)
    41b6:	84aa                	mv	s1,a0
    41b8:	892e                	mv	s2,a1
    41ba:	8432                	mv	s0,a2
    41bc:	c501                	beqz	a0,41c4 <__swbuf_r+0x1a>
    41be:	4d1c                	lw	a5,24(a0)
    41c0:	e391                	bnez	a5,41c4 <__swbuf_r+0x1a>
    41c2:	26f5                	jal	45ae <__sinit>
    41c4:	00003797          	auipc	a5,0x3
    41c8:	aec78793          	addi	a5,a5,-1300 # 6cb0 <__sf_fake_stdin>
    41cc:	06f41763          	bne	s0,a5,423a <__swbuf_r+0x90>
    41d0:	40c0                	lw	s0,4(s1)
    41d2:	4c1c                	lw	a5,24(s0)
    41d4:	c41c                	sw	a5,8(s0)
    41d6:	245e                	lhu	a5,12(s0)
    41d8:	8ba1                	andi	a5,a5,8
    41da:	c3c1                	beqz	a5,425a <__swbuf_r+0xb0>
    41dc:	481c                	lw	a5,16(s0)
    41de:	cfb5                	beqz	a5,425a <__swbuf_r+0xb0>
    41e0:	481c                	lw	a5,16(s0)
    41e2:	4008                	lw	a0,0(s0)
    41e4:	0ff97993          	andi	s3,s2,255
    41e8:	0ff97913          	andi	s2,s2,255
    41ec:	8d1d                	sub	a0,a0,a5
    41ee:	485c                	lw	a5,20(s0)
    41f0:	00f54663          	blt	a0,a5,41fc <__swbuf_r+0x52>
    41f4:	85a2                	mv	a1,s0
    41f6:	8526                	mv	a0,s1
    41f8:	2c69                	jal	4492 <_fflush_r>
    41fa:	e525                	bnez	a0,4262 <__swbuf_r+0xb8>
    41fc:	441c                	lw	a5,8(s0)
    41fe:	0505                	addi	a0,a0,1
    4200:	17fd                	addi	a5,a5,-1
    4202:	c41c                	sw	a5,8(s0)
    4204:	401c                	lw	a5,0(s0)
    4206:	00178713          	addi	a4,a5,1
    420a:	c018                	sw	a4,0(s0)
    420c:	01378023          	sb	s3,0(a5)
    4210:	485c                	lw	a5,20(s0)
    4212:	00a78863          	beq	a5,a0,4222 <__swbuf_r+0x78>
    4216:	245e                	lhu	a5,12(s0)
    4218:	8b85                	andi	a5,a5,1
    421a:	cb81                	beqz	a5,422a <__swbuf_r+0x80>
    421c:	47a9                	li	a5,10
    421e:	00f91663          	bne	s2,a5,422a <__swbuf_r+0x80>
    4222:	85a2                	mv	a1,s0
    4224:	8526                	mv	a0,s1
    4226:	24b5                	jal	4492 <_fflush_r>
    4228:	ed0d                	bnez	a0,4262 <__swbuf_r+0xb8>
    422a:	40f2                	lw	ra,28(sp)
    422c:	4462                	lw	s0,24(sp)
    422e:	854a                	mv	a0,s2
    4230:	44d2                	lw	s1,20(sp)
    4232:	4942                	lw	s2,16(sp)
    4234:	49b2                	lw	s3,12(sp)
    4236:	6105                	addi	sp,sp,32
    4238:	8082                	ret
    423a:	00003797          	auipc	a5,0x3
    423e:	a9678793          	addi	a5,a5,-1386 # 6cd0 <__sf_fake_stdout>
    4242:	00f41463          	bne	s0,a5,424a <__swbuf_r+0xa0>
    4246:	4480                	lw	s0,8(s1)
    4248:	b769                	j	41d2 <__swbuf_r+0x28>
    424a:	00003797          	auipc	a5,0x3
    424e:	a4678793          	addi	a5,a5,-1466 # 6c90 <__sf_fake_stderr>
    4252:	f8f410e3          	bne	s0,a5,41d2 <__swbuf_r+0x28>
    4256:	44c0                	lw	s0,12(s1)
    4258:	bfad                	j	41d2 <__swbuf_r+0x28>
    425a:	85a2                	mv	a1,s0
    425c:	8526                	mv	a0,s1
    425e:	2021                	jal	4266 <__swsetup_r>
    4260:	d141                	beqz	a0,41e0 <__swbuf_r+0x36>
    4262:	597d                	li	s2,-1
    4264:	b7d9                	j	422a <__swbuf_r+0x80>

00004266 <__swsetup_r>:
    4266:	1141                	addi	sp,sp,-16
    4268:	82018793          	addi	a5,gp,-2016 # 200001e0 <_impure_ptr>
    426c:	c226                	sw	s1,4(sp)
    426e:	4384                	lw	s1,0(a5)
    4270:	c422                	sw	s0,8(sp)
    4272:	c04a                	sw	s2,0(sp)
    4274:	c606                	sw	ra,12(sp)
    4276:	892a                	mv	s2,a0
    4278:	842e                	mv	s0,a1
    427a:	c489                	beqz	s1,4284 <__swsetup_r+0x1e>
    427c:	4c9c                	lw	a5,24(s1)
    427e:	e399                	bnez	a5,4284 <__swsetup_r+0x1e>
    4280:	8526                	mv	a0,s1
    4282:	2635                	jal	45ae <__sinit>
    4284:	00003797          	auipc	a5,0x3
    4288:	a2c78793          	addi	a5,a5,-1492 # 6cb0 <__sf_fake_stdin>
    428c:	02f41b63          	bne	s0,a5,42c2 <__swsetup_r+0x5c>
    4290:	40c0                	lw	s0,4(s1)
    4292:	00c41703          	lh	a4,12(s0)
    4296:	01071793          	slli	a5,a4,0x10
    429a:	83c1                	srli	a5,a5,0x10
    429c:	0087f693          	andi	a3,a5,8
    42a0:	eaad                	bnez	a3,4312 <__swsetup_r+0xac>
    42a2:	0107f693          	andi	a3,a5,16
    42a6:	ee95                	bnez	a3,42e2 <__swsetup_r+0x7c>
    42a8:	47a5                	li	a5,9
    42aa:	00f92023          	sw	a5,0(s2)
    42ae:	04076713          	ori	a4,a4,64
    42b2:	a45a                	sh	a4,12(s0)
    42b4:	557d                	li	a0,-1
    42b6:	40b2                	lw	ra,12(sp)
    42b8:	4422                	lw	s0,8(sp)
    42ba:	4492                	lw	s1,4(sp)
    42bc:	4902                	lw	s2,0(sp)
    42be:	0141                	addi	sp,sp,16
    42c0:	8082                	ret
    42c2:	00003797          	auipc	a5,0x3
    42c6:	a0e78793          	addi	a5,a5,-1522 # 6cd0 <__sf_fake_stdout>
    42ca:	00f41463          	bne	s0,a5,42d2 <__swsetup_r+0x6c>
    42ce:	4480                	lw	s0,8(s1)
    42d0:	b7c9                	j	4292 <__swsetup_r+0x2c>
    42d2:	00003797          	auipc	a5,0x3
    42d6:	9be78793          	addi	a5,a5,-1602 # 6c90 <__sf_fake_stderr>
    42da:	faf41ce3          	bne	s0,a5,4292 <__swsetup_r+0x2c>
    42de:	44c0                	lw	s0,12(s1)
    42e0:	bf4d                	j	4292 <__swsetup_r+0x2c>
    42e2:	8b91                	andi	a5,a5,4
    42e4:	c39d                	beqz	a5,430a <__swsetup_r+0xa4>
    42e6:	584c                	lw	a1,52(s0)
    42e8:	c989                	beqz	a1,42fa <__swsetup_r+0x94>
    42ea:	04440793          	addi	a5,s0,68
    42ee:	00f58463          	beq	a1,a5,42f6 <__swsetup_r+0x90>
    42f2:	854a                	mv	a0,s2
    42f4:	2b29                	jal	480e <_free_r>
    42f6:	02042a23          	sw	zero,52(s0)
    42fa:	245e                	lhu	a5,12(s0)
    42fc:	00042223          	sw	zero,4(s0)
    4300:	fdb7f793          	andi	a5,a5,-37
    4304:	a45e                	sh	a5,12(s0)
    4306:	481c                	lw	a5,16(s0)
    4308:	c01c                	sw	a5,0(s0)
    430a:	245e                	lhu	a5,12(s0)
    430c:	0087e793          	ori	a5,a5,8
    4310:	a45e                	sh	a5,12(s0)
    4312:	481c                	lw	a5,16(s0)
    4314:	eb99                	bnez	a5,432a <__swsetup_r+0xc4>
    4316:	245e                	lhu	a5,12(s0)
    4318:	20000713          	li	a4,512
    431c:	2807f793          	andi	a5,a5,640
    4320:	00e78563          	beq	a5,a4,432a <__swsetup_r+0xc4>
    4324:	85a2                	mv	a1,s0
    4326:	854a                	mv	a0,s2
    4328:	2991                	jal	477c <__smakebuf_r>
    432a:	245e                	lhu	a5,12(s0)
    432c:	0017f713          	andi	a4,a5,1
    4330:	c31d                	beqz	a4,4356 <__swsetup_r+0xf0>
    4332:	485c                	lw	a5,20(s0)
    4334:	00042423          	sw	zero,8(s0)
    4338:	40f007b3          	neg	a5,a5
    433c:	cc1c                	sw	a5,24(s0)
    433e:	481c                	lw	a5,16(s0)
    4340:	4501                	li	a0,0
    4342:	fbb5                	bnez	a5,42b6 <__swsetup_r+0x50>
    4344:	00c41783          	lh	a5,12(s0)
    4348:	0807f713          	andi	a4,a5,128
    434c:	d72d                	beqz	a4,42b6 <__swsetup_r+0x50>
    434e:	0407e793          	ori	a5,a5,64
    4352:	a45e                	sh	a5,12(s0)
    4354:	b785                	j	42b4 <__swsetup_r+0x4e>
    4356:	8b89                	andi	a5,a5,2
    4358:	4701                	li	a4,0
    435a:	e391                	bnez	a5,435e <__swsetup_r+0xf8>
    435c:	4858                	lw	a4,20(s0)
    435e:	c418                	sw	a4,8(s0)
    4360:	bff9                	j	433e <__swsetup_r+0xd8>

00004362 <__sflush_r>:
    4362:	25de                	lhu	a5,12(a1)
    4364:	1101                	addi	sp,sp,-32
    4366:	cc22                	sw	s0,24(sp)
    4368:	ca26                	sw	s1,20(sp)
    436a:	ce06                	sw	ra,28(sp)
    436c:	c84a                	sw	s2,16(sp)
    436e:	c64e                	sw	s3,12(sp)
    4370:	0087f713          	andi	a4,a5,8
    4374:	84aa                	mv	s1,a0
    4376:	842e                	mv	s0,a1
    4378:	eb79                	bnez	a4,444e <__sflush_r+0xec>
    437a:	41d8                	lw	a4,4(a1)
    437c:	00e04d63          	bgtz	a4,4396 <__sflush_r+0x34>
    4380:	41b8                	lw	a4,64(a1)
    4382:	00e04a63          	bgtz	a4,4396 <__sflush_r+0x34>
    4386:	4501                	li	a0,0
    4388:	40f2                	lw	ra,28(sp)
    438a:	4462                	lw	s0,24(sp)
    438c:	44d2                	lw	s1,20(sp)
    438e:	4942                	lw	s2,16(sp)
    4390:	49b2                	lw	s3,12(sp)
    4392:	6105                	addi	sp,sp,32
    4394:	8082                	ret
    4396:	5458                	lw	a4,44(s0)
    4398:	d77d                	beqz	a4,4386 <__sflush_r+0x24>
    439a:	0004a903          	lw	s2,0(s1)
    439e:	01379693          	slli	a3,a5,0x13
    43a2:	0004a023          	sw	zero,0(s1)
    43a6:	0606db63          	bgez	a3,441c <__sflush_r+0xba>
    43aa:	4870                	lw	a2,84(s0)
    43ac:	245e                	lhu	a5,12(s0)
    43ae:	8b91                	andi	a5,a5,4
    43b0:	c799                	beqz	a5,43be <__sflush_r+0x5c>
    43b2:	405c                	lw	a5,4(s0)
    43b4:	8e1d                	sub	a2,a2,a5
    43b6:	585c                	lw	a5,52(s0)
    43b8:	c399                	beqz	a5,43be <__sflush_r+0x5c>
    43ba:	403c                	lw	a5,64(s0)
    43bc:	8e1d                	sub	a2,a2,a5
    43be:	545c                	lw	a5,44(s0)
    43c0:	500c                	lw	a1,32(s0)
    43c2:	4681                	li	a3,0
    43c4:	8526                	mv	a0,s1
    43c6:	9782                	jalr	a5
    43c8:	57fd                	li	a5,-1
    43ca:	245a                	lhu	a4,12(s0)
    43cc:	00f51d63          	bne	a0,a5,43e6 <__sflush_r+0x84>
    43d0:	4094                	lw	a3,0(s1)
    43d2:	47f5                	li	a5,29
    43d4:	06d7e863          	bltu	a5,a3,4444 <__sflush_r+0xe2>
    43d8:	204007b7          	lui	a5,0x20400
    43dc:	0785                	addi	a5,a5,1
    43de:	00d7d7b3          	srl	a5,a5,a3
    43e2:	8b85                	andi	a5,a5,1
    43e4:	c3a5                	beqz	a5,4444 <__sflush_r+0xe2>
    43e6:	481c                	lw	a5,16(s0)
    43e8:	00042223          	sw	zero,4(s0)
    43ec:	c01c                	sw	a5,0(s0)
    43ee:	01371793          	slli	a5,a4,0x13
    43f2:	0007d863          	bgez	a5,4402 <__sflush_r+0xa0>
    43f6:	57fd                	li	a5,-1
    43f8:	00f51463          	bne	a0,a5,4400 <__sflush_r+0x9e>
    43fc:	409c                	lw	a5,0(s1)
    43fe:	e391                	bnez	a5,4402 <__sflush_r+0xa0>
    4400:	c868                	sw	a0,84(s0)
    4402:	584c                	lw	a1,52(s0)
    4404:	0124a023          	sw	s2,0(s1)
    4408:	ddbd                	beqz	a1,4386 <__sflush_r+0x24>
    440a:	04440793          	addi	a5,s0,68
    440e:	00f58463          	beq	a1,a5,4416 <__sflush_r+0xb4>
    4412:	8526                	mv	a0,s1
    4414:	2eed                	jal	480e <_free_r>
    4416:	02042a23          	sw	zero,52(s0)
    441a:	b7b5                	j	4386 <__sflush_r+0x24>
    441c:	500c                	lw	a1,32(s0)
    441e:	4601                	li	a2,0
    4420:	4685                	li	a3,1
    4422:	8526                	mv	a0,s1
    4424:	9702                	jalr	a4
    4426:	57fd                	li	a5,-1
    4428:	862a                	mv	a2,a0
    442a:	f8f511e3          	bne	a0,a5,43ac <__sflush_r+0x4a>
    442e:	409c                	lw	a5,0(s1)
    4430:	dfb5                	beqz	a5,43ac <__sflush_r+0x4a>
    4432:	4775                	li	a4,29
    4434:	00e78563          	beq	a5,a4,443e <__sflush_r+0xdc>
    4438:	4759                	li	a4,22
    443a:	04e79363          	bne	a5,a4,4480 <__sflush_r+0x11e>
    443e:	0124a023          	sw	s2,0(s1)
    4442:	b791                	j	4386 <__sflush_r+0x24>
    4444:	04076713          	ori	a4,a4,64
    4448:	a45a                	sh	a4,12(s0)
    444a:	557d                	li	a0,-1
    444c:	bf35                	j	4388 <__sflush_r+0x26>
    444e:	0105a983          	lw	s3,16(a1)
    4452:	f2098ae3          	beqz	s3,4386 <__sflush_r+0x24>
    4456:	0005a903          	lw	s2,0(a1)
    445a:	8b8d                	andi	a5,a5,3
    445c:	0135a023          	sw	s3,0(a1)
    4460:	41390933          	sub	s2,s2,s3
    4464:	4701                	li	a4,0
    4466:	e391                	bnez	a5,446a <__sflush_r+0x108>
    4468:	49d8                	lw	a4,20(a1)
    446a:	c418                	sw	a4,8(s0)
    446c:	f1205de3          	blez	s2,4386 <__sflush_r+0x24>
    4470:	541c                	lw	a5,40(s0)
    4472:	500c                	lw	a1,32(s0)
    4474:	86ca                	mv	a3,s2
    4476:	864e                	mv	a2,s3
    4478:	8526                	mv	a0,s1
    447a:	9782                	jalr	a5
    447c:	00a04763          	bgtz	a0,448a <__sflush_r+0x128>
    4480:	245e                	lhu	a5,12(s0)
    4482:	0407e793          	ori	a5,a5,64
    4486:	a45e                	sh	a5,12(s0)
    4488:	b7c9                	j	444a <__sflush_r+0xe8>
    448a:	99aa                	add	s3,s3,a0
    448c:	40a90933          	sub	s2,s2,a0
    4490:	bff1                	j	446c <__sflush_r+0x10a>

00004492 <_fflush_r>:
    4492:	499c                	lw	a5,16(a1)
    4494:	c3a5                	beqz	a5,44f4 <_fflush_r+0x62>
    4496:	1101                	addi	sp,sp,-32
    4498:	cc22                	sw	s0,24(sp)
    449a:	ce06                	sw	ra,28(sp)
    449c:	842a                	mv	s0,a0
    449e:	c511                	beqz	a0,44aa <_fflush_r+0x18>
    44a0:	4d1c                	lw	a5,24(a0)
    44a2:	e781                	bnez	a5,44aa <_fflush_r+0x18>
    44a4:	c62e                	sw	a1,12(sp)
    44a6:	2221                	jal	45ae <__sinit>
    44a8:	45b2                	lw	a1,12(sp)
    44aa:	00003797          	auipc	a5,0x3
    44ae:	80678793          	addi	a5,a5,-2042 # 6cb0 <__sf_fake_stdin>
    44b2:	00f59c63          	bne	a1,a5,44ca <_fflush_r+0x38>
    44b6:	404c                	lw	a1,4(s0)
    44b8:	00c59783          	lh	a5,12(a1)
    44bc:	c79d                	beqz	a5,44ea <_fflush_r+0x58>
    44be:	8522                	mv	a0,s0
    44c0:	4462                	lw	s0,24(sp)
    44c2:	40f2                	lw	ra,28(sp)
    44c4:	6105                	addi	sp,sp,32
    44c6:	e9dff06f          	j	4362 <__sflush_r>
    44ca:	00003797          	auipc	a5,0x3
    44ce:	80678793          	addi	a5,a5,-2042 # 6cd0 <__sf_fake_stdout>
    44d2:	00f59463          	bne	a1,a5,44da <_fflush_r+0x48>
    44d6:	440c                	lw	a1,8(s0)
    44d8:	b7c5                	j	44b8 <_fflush_r+0x26>
    44da:	00002797          	auipc	a5,0x2
    44de:	7b678793          	addi	a5,a5,1974 # 6c90 <__sf_fake_stderr>
    44e2:	fcf59be3          	bne	a1,a5,44b8 <_fflush_r+0x26>
    44e6:	444c                	lw	a1,12(s0)
    44e8:	bfc1                	j	44b8 <_fflush_r+0x26>
    44ea:	40f2                	lw	ra,28(sp)
    44ec:	4462                	lw	s0,24(sp)
    44ee:	4501                	li	a0,0
    44f0:	6105                	addi	sp,sp,32
    44f2:	8082                	ret
    44f4:	4501                	li	a0,0
    44f6:	8082                	ret

000044f8 <std>:
    44f8:	1141                	addi	sp,sp,-16
    44fa:	c422                	sw	s0,8(sp)
    44fc:	c606                	sw	ra,12(sp)
    44fe:	842a                	mv	s0,a0
    4500:	a54e                	sh	a1,12(a0)
    4502:	a572                	sh	a2,14(a0)
    4504:	00052023          	sw	zero,0(a0)
    4508:	00052223          	sw	zero,4(a0)
    450c:	00052423          	sw	zero,8(a0)
    4510:	06052223          	sw	zero,100(a0)
    4514:	00052823          	sw	zero,16(a0)
    4518:	00052a23          	sw	zero,20(a0)
    451c:	00052c23          	sw	zero,24(a0)
    4520:	4621                	li	a2,8
    4522:	4581                	li	a1,0
    4524:	05c50513          	addi	a0,a0,92
    4528:	c39fb0ef          	jal	ra,160 <memset>
    452c:	00001797          	auipc	a5,0x1
    4530:	e8c78793          	addi	a5,a5,-372 # 53b8 <__sread>
    4534:	d05c                	sw	a5,36(s0)
    4536:	00001797          	auipc	a5,0x1
    453a:	eae78793          	addi	a5,a5,-338 # 53e4 <__swrite>
    453e:	d41c                	sw	a5,40(s0)
    4540:	00001797          	auipc	a5,0x1
    4544:	eec78793          	addi	a5,a5,-276 # 542c <__sseek>
    4548:	d45c                	sw	a5,44(s0)
    454a:	00001797          	auipc	a5,0x1
    454e:	f1278793          	addi	a5,a5,-238 # 545c <__sclose>
    4552:	d000                	sw	s0,32(s0)
    4554:	d81c                	sw	a5,48(s0)
    4556:	40b2                	lw	ra,12(sp)
    4558:	4422                	lw	s0,8(sp)
    455a:	0141                	addi	sp,sp,16
    455c:	8082                	ret

0000455e <_cleanup_r>:
    455e:	00000597          	auipc	a1,0x0
    4562:	f3458593          	addi	a1,a1,-204 # 4492 <_fflush_r>
    4566:	aa91                	j	46ba <_fwalk_reent>

00004568 <__sfmoreglue>:
    4568:	1141                	addi	sp,sp,-16
    456a:	c226                	sw	s1,4(sp)
    456c:	06800613          	li	a2,104
    4570:	fff58493          	addi	s1,a1,-1
    4574:	02c484b3          	mul	s1,s1,a2
    4578:	c04a                	sw	s2,0(sp)
    457a:	892e                	mv	s2,a1
    457c:	c422                	sw	s0,8(sp)
    457e:	c606                	sw	ra,12(sp)
    4580:	07448593          	addi	a1,s1,116
    4584:	2e0d                	jal	48b6 <_malloc_r>
    4586:	842a                	mv	s0,a0
    4588:	cd01                	beqz	a0,45a0 <__sfmoreglue+0x38>
    458a:	00052023          	sw	zero,0(a0)
    458e:	01252223          	sw	s2,4(a0)
    4592:	0531                	addi	a0,a0,12
    4594:	c408                	sw	a0,8(s0)
    4596:	06848613          	addi	a2,s1,104
    459a:	4581                	li	a1,0
    459c:	bc5fb0ef          	jal	ra,160 <memset>
    45a0:	8522                	mv	a0,s0
    45a2:	40b2                	lw	ra,12(sp)
    45a4:	4422                	lw	s0,8(sp)
    45a6:	4492                	lw	s1,4(sp)
    45a8:	4902                	lw	s2,0(sp)
    45aa:	0141                	addi	sp,sp,16
    45ac:	8082                	ret

000045ae <__sinit>:
    45ae:	4d1c                	lw	a5,24(a0)
    45b0:	e7a5                	bnez	a5,4618 <__sinit+0x6a>
    45b2:	1141                	addi	sp,sp,-16
    45b4:	c606                	sw	ra,12(sp)
    45b6:	c422                	sw	s0,8(sp)
    45b8:	00000797          	auipc	a5,0x0
    45bc:	fa678793          	addi	a5,a5,-90 # 455e <_cleanup_r>
    45c0:	d51c                	sw	a5,40(a0)
    45c2:	88c18793          	addi	a5,gp,-1908 # 2000024c <_global_impure_ptr>
    45c6:	439c                	lw	a5,0(a5)
    45c8:	04052423          	sw	zero,72(a0)
    45cc:	04052623          	sw	zero,76(a0)
    45d0:	04052823          	sw	zero,80(a0)
    45d4:	00f51463          	bne	a0,a5,45dc <__sinit+0x2e>
    45d8:	4785                	li	a5,1
    45da:	cd1c                	sw	a5,24(a0)
    45dc:	842a                	mv	s0,a0
    45de:	2835                	jal	461a <__sfp>
    45e0:	c048                	sw	a0,4(s0)
    45e2:	8522                	mv	a0,s0
    45e4:	281d                	jal	461a <__sfp>
    45e6:	c408                	sw	a0,8(s0)
    45e8:	8522                	mv	a0,s0
    45ea:	2805                	jal	461a <__sfp>
    45ec:	c448                	sw	a0,12(s0)
    45ee:	4048                	lw	a0,4(s0)
    45f0:	4601                	li	a2,0
    45f2:	4591                	li	a1,4
    45f4:	f05ff0ef          	jal	ra,44f8 <std>
    45f8:	4408                	lw	a0,8(s0)
    45fa:	4605                	li	a2,1
    45fc:	45a5                	li	a1,9
    45fe:	efbff0ef          	jal	ra,44f8 <std>
    4602:	4448                	lw	a0,12(s0)
    4604:	4609                	li	a2,2
    4606:	45c9                	li	a1,18
    4608:	ef1ff0ef          	jal	ra,44f8 <std>
    460c:	4785                	li	a5,1
    460e:	cc1c                	sw	a5,24(s0)
    4610:	40b2                	lw	ra,12(sp)
    4612:	4422                	lw	s0,8(sp)
    4614:	0141                	addi	sp,sp,16
    4616:	8082                	ret
    4618:	8082                	ret

0000461a <__sfp>:
    461a:	1141                	addi	sp,sp,-16
    461c:	88c18793          	addi	a5,gp,-1908 # 2000024c <_global_impure_ptr>
    4620:	c226                	sw	s1,4(sp)
    4622:	4384                	lw	s1,0(a5)
    4624:	c04a                	sw	s2,0(sp)
    4626:	c606                	sw	ra,12(sp)
    4628:	4c9c                	lw	a5,24(s1)
    462a:	c422                	sw	s0,8(sp)
    462c:	892a                	mv	s2,a0
    462e:	e781                	bnez	a5,4636 <__sfp+0x1c>
    4630:	8526                	mv	a0,s1
    4632:	f7dff0ef          	jal	ra,45ae <__sinit>
    4636:	04848493          	addi	s1,s1,72
    463a:	4480                	lw	s0,8(s1)
    463c:	40dc                	lw	a5,4(s1)
    463e:	17fd                	addi	a5,a5,-1
    4640:	0007d663          	bgez	a5,464c <__sfp+0x32>
    4644:	409c                	lw	a5,0(s1)
    4646:	cfb9                	beqz	a5,46a4 <__sfp+0x8a>
    4648:	4084                	lw	s1,0(s1)
    464a:	bfc5                	j	463a <__sfp+0x20>
    464c:	00c41703          	lh	a4,12(s0)
    4650:	e739                	bnez	a4,469e <__sfp+0x84>
    4652:	77c1                	lui	a5,0xffff0
    4654:	0785                	addi	a5,a5,1
    4656:	06042223          	sw	zero,100(s0)
    465a:	00042023          	sw	zero,0(s0)
    465e:	00042223          	sw	zero,4(s0)
    4662:	00042423          	sw	zero,8(s0)
    4666:	c45c                	sw	a5,12(s0)
    4668:	00042823          	sw	zero,16(s0)
    466c:	00042a23          	sw	zero,20(s0)
    4670:	00042c23          	sw	zero,24(s0)
    4674:	4621                	li	a2,8
    4676:	4581                	li	a1,0
    4678:	05c40513          	addi	a0,s0,92
    467c:	ae5fb0ef          	jal	ra,160 <memset>
    4680:	02042a23          	sw	zero,52(s0)
    4684:	02042c23          	sw	zero,56(s0)
    4688:	04042423          	sw	zero,72(s0)
    468c:	04042623          	sw	zero,76(s0)
    4690:	8522                	mv	a0,s0
    4692:	40b2                	lw	ra,12(sp)
    4694:	4422                	lw	s0,8(sp)
    4696:	4492                	lw	s1,4(sp)
    4698:	4902                	lw	s2,0(sp)
    469a:	0141                	addi	sp,sp,16
    469c:	8082                	ret
    469e:	06840413          	addi	s0,s0,104
    46a2:	bf71                	j	463e <__sfp+0x24>
    46a4:	4591                	li	a1,4
    46a6:	854a                	mv	a0,s2
    46a8:	ec1ff0ef          	jal	ra,4568 <__sfmoreglue>
    46ac:	c088                	sw	a0,0(s1)
    46ae:	fd49                	bnez	a0,4648 <__sfp+0x2e>
    46b0:	47b1                	li	a5,12
    46b2:	00f92023          	sw	a5,0(s2)
    46b6:	4401                	li	s0,0
    46b8:	bfe1                	j	4690 <__sfp+0x76>

000046ba <_fwalk_reent>:
    46ba:	7179                	addi	sp,sp,-48
    46bc:	d422                	sw	s0,40(sp)
    46be:	d04a                	sw	s2,32(sp)
    46c0:	cc52                	sw	s4,24(sp)
    46c2:	ca56                	sw	s5,20(sp)
    46c4:	c85a                	sw	s6,16(sp)
    46c6:	c65e                	sw	s7,12(sp)
    46c8:	d606                	sw	ra,44(sp)
    46ca:	d226                	sw	s1,36(sp)
    46cc:	ce4e                	sw	s3,28(sp)
    46ce:	8a2a                	mv	s4,a0
    46d0:	8aae                	mv	s5,a1
    46d2:	04850413          	addi	s0,a0,72
    46d6:	4901                	li	s2,0
    46d8:	4b05                	li	s6,1
    46da:	5bfd                	li	s7,-1
    46dc:	ec09                	bnez	s0,46f6 <_fwalk_reent+0x3c>
    46de:	50b2                	lw	ra,44(sp)
    46e0:	5422                	lw	s0,40(sp)
    46e2:	854a                	mv	a0,s2
    46e4:	5492                	lw	s1,36(sp)
    46e6:	5902                	lw	s2,32(sp)
    46e8:	49f2                	lw	s3,28(sp)
    46ea:	4a62                	lw	s4,24(sp)
    46ec:	4ad2                	lw	s5,20(sp)
    46ee:	4b42                	lw	s6,16(sp)
    46f0:	4bb2                	lw	s7,12(sp)
    46f2:	6145                	addi	sp,sp,48
    46f4:	8082                	ret
    46f6:	4404                	lw	s1,8(s0)
    46f8:	00442983          	lw	s3,4(s0)
    46fc:	19fd                	addi	s3,s3,-1
    46fe:	0009d463          	bgez	s3,4706 <_fwalk_reent+0x4c>
    4702:	4000                	lw	s0,0(s0)
    4704:	bfe1                	j	46dc <_fwalk_reent+0x22>
    4706:	24de                	lhu	a5,12(s1)
    4708:	00fb7b63          	bgeu	s6,a5,471e <_fwalk_reent+0x64>
    470c:	00e49783          	lh	a5,14(s1)
    4710:	01778763          	beq	a5,s7,471e <_fwalk_reent+0x64>
    4714:	85a6                	mv	a1,s1
    4716:	8552                	mv	a0,s4
    4718:	9a82                	jalr	s5
    471a:	00a96933          	or	s2,s2,a0
    471e:	06848493          	addi	s1,s1,104
    4722:	bfe9                	j	46fc <_fwalk_reent+0x42>

00004724 <__swhatbuf_r>:
    4724:	7119                	addi	sp,sp,-128
    4726:	daa6                	sw	s1,116(sp)
    4728:	84ae                	mv	s1,a1
    472a:	00e59583          	lh	a1,14(a1)
    472e:	dca2                	sw	s0,120(sp)
    4730:	de86                	sw	ra,124(sp)
    4732:	8432                	mv	s0,a2
    4734:	0005db63          	bgez	a1,474a <__swhatbuf_r+0x26>
    4738:	24de                	lhu	a5,12(s1)
    473a:	0006a023          	sw	zero,0(a3)
    473e:	0807f793          	andi	a5,a5,128
    4742:	e785                	bnez	a5,476a <__swhatbuf_r+0x46>
    4744:	40000793          	li	a5,1024
    4748:	a01d                	j	476e <__swhatbuf_r+0x4a>
    474a:	0830                	addi	a2,sp,24
    474c:	c636                	sw	a3,12(sp)
    474e:	57b000ef          	jal	ra,54c8 <_fstat_r>
    4752:	46b2                	lw	a3,12(sp)
    4754:	fe0542e3          	bltz	a0,4738 <__swhatbuf_r+0x14>
    4758:	4772                	lw	a4,28(sp)
    475a:	67bd                	lui	a5,0xf
    475c:	8ff9                	and	a5,a5,a4
    475e:	7779                	lui	a4,0xffffe
    4760:	97ba                	add	a5,a5,a4
    4762:	0017b793          	seqz	a5,a5
    4766:	c29c                	sw	a5,0(a3)
    4768:	bff1                	j	4744 <__swhatbuf_r+0x20>
    476a:	04000793          	li	a5,64
    476e:	c01c                	sw	a5,0(s0)
    4770:	50f6                	lw	ra,124(sp)
    4772:	5466                	lw	s0,120(sp)
    4774:	54d6                	lw	s1,116(sp)
    4776:	4501                	li	a0,0
    4778:	6109                	addi	sp,sp,128
    477a:	8082                	ret

0000477c <__smakebuf_r>:
    477c:	25de                	lhu	a5,12(a1)
    477e:	1101                	addi	sp,sp,-32
    4780:	cc22                	sw	s0,24(sp)
    4782:	ce06                	sw	ra,28(sp)
    4784:	ca26                	sw	s1,20(sp)
    4786:	c84a                	sw	s2,16(sp)
    4788:	8b89                	andi	a5,a5,2
    478a:	842e                	mv	s0,a1
    478c:	cf89                	beqz	a5,47a6 <__smakebuf_r+0x2a>
    478e:	04740793          	addi	a5,s0,71
    4792:	c01c                	sw	a5,0(s0)
    4794:	c81c                	sw	a5,16(s0)
    4796:	4785                	li	a5,1
    4798:	c85c                	sw	a5,20(s0)
    479a:	40f2                	lw	ra,28(sp)
    479c:	4462                	lw	s0,24(sp)
    479e:	44d2                	lw	s1,20(sp)
    47a0:	4942                	lw	s2,16(sp)
    47a2:	6105                	addi	sp,sp,32
    47a4:	8082                	ret
    47a6:	0074                	addi	a3,sp,12
    47a8:	0030                	addi	a2,sp,8
    47aa:	84aa                	mv	s1,a0
    47ac:	f79ff0ef          	jal	ra,4724 <__swhatbuf_r>
    47b0:	45a2                	lw	a1,8(sp)
    47b2:	892a                	mv	s2,a0
    47b4:	8526                	mv	a0,s1
    47b6:	2201                	jal	48b6 <_malloc_r>
    47b8:	e919                	bnez	a0,47ce <__smakebuf_r+0x52>
    47ba:	00c41783          	lh	a5,12(s0)
    47be:	2007f713          	andi	a4,a5,512
    47c2:	ff61                	bnez	a4,479a <__smakebuf_r+0x1e>
    47c4:	9bf1                	andi	a5,a5,-4
    47c6:	0027e793          	ori	a5,a5,2
    47ca:	a45e                	sh	a5,12(s0)
    47cc:	b7c9                	j	478e <__smakebuf_r+0x12>
    47ce:	00000797          	auipc	a5,0x0
    47d2:	d9078793          	addi	a5,a5,-624 # 455e <_cleanup_r>
    47d6:	d49c                	sw	a5,40(s1)
    47d8:	245e                	lhu	a5,12(s0)
    47da:	c008                	sw	a0,0(s0)
    47dc:	c808                	sw	a0,16(s0)
    47de:	0807e793          	ori	a5,a5,128
    47e2:	a45e                	sh	a5,12(s0)
    47e4:	47a2                	lw	a5,8(sp)
    47e6:	c85c                	sw	a5,20(s0)
    47e8:	47b2                	lw	a5,12(sp)
    47ea:	cf81                	beqz	a5,4802 <__smakebuf_r+0x86>
    47ec:	00e41583          	lh	a1,14(s0)
    47f0:	8526                	mv	a0,s1
    47f2:	509000ef          	jal	ra,54fa <_isatty_r>
    47f6:	c511                	beqz	a0,4802 <__smakebuf_r+0x86>
    47f8:	245e                	lhu	a5,12(s0)
    47fa:	9bf1                	andi	a5,a5,-4
    47fc:	0017e793          	ori	a5,a5,1
    4800:	a45e                	sh	a5,12(s0)
    4802:	245e                	lhu	a5,12(s0)
    4804:	00f96933          	or	s2,s2,a5
    4808:	01241623          	sh	s2,12(s0)
    480c:	b779                	j	479a <__smakebuf_r+0x1e>

0000480e <_free_r>:
    480e:	c1dd                	beqz	a1,48b4 <_free_r+0xa6>
    4810:	ffc5a783          	lw	a5,-4(a1)
    4814:	1141                	addi	sp,sp,-16
    4816:	c422                	sw	s0,8(sp)
    4818:	c606                	sw	ra,12(sp)
    481a:	c226                	sw	s1,4(sp)
    481c:	ffc58413          	addi	s0,a1,-4
    4820:	0007d363          	bgez	a5,4826 <_free_r+0x18>
    4824:	943e                	add	s0,s0,a5
    4826:	84aa                	mv	s1,a0
    4828:	57d000ef          	jal	ra,55a4 <__malloc_lock>
    482c:	8cc18793          	addi	a5,gp,-1844 # 2000028c <__malloc_free_list>
    4830:	439c                	lw	a5,0(a5)
    4832:	ef81                	bnez	a5,484a <_free_r+0x3c>
    4834:	00042223          	sw	zero,4(s0)
    4838:	8c81a623          	sw	s0,-1844(gp) # 2000028c <__malloc_free_list>
    483c:	4422                	lw	s0,8(sp)
    483e:	40b2                	lw	ra,12(sp)
    4840:	8526                	mv	a0,s1
    4842:	4492                	lw	s1,4(sp)
    4844:	0141                	addi	sp,sp,16
    4846:	5610006f          	j	55a6 <__malloc_unlock>
    484a:	00f47e63          	bgeu	s0,a5,4866 <_free_r+0x58>
    484e:	4014                	lw	a3,0(s0)
    4850:	00d40733          	add	a4,s0,a3
    4854:	00e79663          	bne	a5,a4,4860 <_free_r+0x52>
    4858:	4398                	lw	a4,0(a5)
    485a:	43dc                	lw	a5,4(a5)
    485c:	9736                	add	a4,a4,a3
    485e:	c018                	sw	a4,0(s0)
    4860:	c05c                	sw	a5,4(s0)
    4862:	bfd9                	j	4838 <_free_r+0x2a>
    4864:	87ba                	mv	a5,a4
    4866:	43d8                	lw	a4,4(a5)
    4868:	c319                	beqz	a4,486e <_free_r+0x60>
    486a:	fee47de3          	bgeu	s0,a4,4864 <_free_r+0x56>
    486e:	4394                	lw	a3,0(a5)
    4870:	00d78633          	add	a2,a5,a3
    4874:	00861f63          	bne	a2,s0,4892 <_free_r+0x84>
    4878:	4010                	lw	a2,0(s0)
    487a:	96b2                	add	a3,a3,a2
    487c:	c394                	sw	a3,0(a5)
    487e:	00d78633          	add	a2,a5,a3
    4882:	fac71de3          	bne	a4,a2,483c <_free_r+0x2e>
    4886:	4310                	lw	a2,0(a4)
    4888:	4358                	lw	a4,4(a4)
    488a:	96b2                	add	a3,a3,a2
    488c:	c394                	sw	a3,0(a5)
    488e:	c3d8                	sw	a4,4(a5)
    4890:	b775                	j	483c <_free_r+0x2e>
    4892:	00c47563          	bgeu	s0,a2,489c <_free_r+0x8e>
    4896:	47b1                	li	a5,12
    4898:	c09c                	sw	a5,0(s1)
    489a:	b74d                	j	483c <_free_r+0x2e>
    489c:	4010                	lw	a2,0(s0)
    489e:	00c406b3          	add	a3,s0,a2
    48a2:	00d71663          	bne	a4,a3,48ae <_free_r+0xa0>
    48a6:	4314                	lw	a3,0(a4)
    48a8:	4358                	lw	a4,4(a4)
    48aa:	96b2                	add	a3,a3,a2
    48ac:	c014                	sw	a3,0(s0)
    48ae:	c058                	sw	a4,4(s0)
    48b0:	c3c0                	sw	s0,4(a5)
    48b2:	b769                	j	483c <_free_r+0x2e>
    48b4:	8082                	ret

000048b6 <_malloc_r>:
    48b6:	1101                	addi	sp,sp,-32
    48b8:	ca26                	sw	s1,20(sp)
    48ba:	00358493          	addi	s1,a1,3
    48be:	98f1                	andi	s1,s1,-4
    48c0:	ce06                	sw	ra,28(sp)
    48c2:	cc22                	sw	s0,24(sp)
    48c4:	c84a                	sw	s2,16(sp)
    48c6:	c64e                	sw	s3,12(sp)
    48c8:	04a1                	addi	s1,s1,8
    48ca:	47b1                	li	a5,12
    48cc:	04f4f563          	bgeu	s1,a5,4916 <_malloc_r+0x60>
    48d0:	44b1                	li	s1,12
    48d2:	04b4e463          	bltu	s1,a1,491a <_malloc_r+0x64>
    48d6:	892a                	mv	s2,a0
    48d8:	4cd000ef          	jal	ra,55a4 <__malloc_lock>
    48dc:	8cc18793          	addi	a5,gp,-1844 # 2000028c <__malloc_free_list>
    48e0:	4398                	lw	a4,0(a5)
    48e2:	843a                	mv	s0,a4
    48e4:	e429                	bnez	s0,492e <_malloc_r+0x78>
    48e6:	8d018793          	addi	a5,gp,-1840 # 20000290 <__malloc_sbrk_start>
    48ea:	439c                	lw	a5,0(a5)
    48ec:	e799                	bnez	a5,48fa <_malloc_r+0x44>
    48ee:	4581                	li	a1,0
    48f0:	854a                	mv	a0,s2
    48f2:	295000ef          	jal	ra,5386 <_sbrk_r>
    48f6:	8ca1a823          	sw	a0,-1840(gp) # 20000290 <__malloc_sbrk_start>
    48fa:	85a6                	mv	a1,s1
    48fc:	854a                	mv	a0,s2
    48fe:	289000ef          	jal	ra,5386 <_sbrk_r>
    4902:	59fd                	li	s3,-1
    4904:	07351963          	bne	a0,s3,4976 <_malloc_r+0xc0>
    4908:	47b1                	li	a5,12
    490a:	00f92023          	sw	a5,0(s2)
    490e:	854a                	mv	a0,s2
    4910:	497000ef          	jal	ra,55a6 <__malloc_unlock>
    4914:	a029                	j	491e <_malloc_r+0x68>
    4916:	fa04dee3          	bgez	s1,48d2 <_malloc_r+0x1c>
    491a:	47b1                	li	a5,12
    491c:	c11c                	sw	a5,0(a0)
    491e:	4501                	li	a0,0
    4920:	40f2                	lw	ra,28(sp)
    4922:	4462                	lw	s0,24(sp)
    4924:	44d2                	lw	s1,20(sp)
    4926:	4942                	lw	s2,16(sp)
    4928:	49b2                	lw	s3,12(sp)
    492a:	6105                	addi	sp,sp,32
    492c:	8082                	ret
    492e:	401c                	lw	a5,0(s0)
    4930:	8f85                	sub	a5,a5,s1
    4932:	0207cf63          	bltz	a5,4970 <_malloc_r+0xba>
    4936:	46ad                	li	a3,11
    4938:	00f6f663          	bgeu	a3,a5,4944 <_malloc_r+0x8e>
    493c:	c01c                	sw	a5,0(s0)
    493e:	943e                	add	s0,s0,a5
    4940:	c004                	sw	s1,0(s0)
    4942:	a031                	j	494e <_malloc_r+0x98>
    4944:	405c                	lw	a5,4(s0)
    4946:	02871363          	bne	a4,s0,496c <_malloc_r+0xb6>
    494a:	8cf1a623          	sw	a5,-1844(gp) # 2000028c <__malloc_free_list>
    494e:	854a                	mv	a0,s2
    4950:	457000ef          	jal	ra,55a6 <__malloc_unlock>
    4954:	00b40513          	addi	a0,s0,11
    4958:	00440793          	addi	a5,s0,4
    495c:	9961                	andi	a0,a0,-8
    495e:	40f50733          	sub	a4,a0,a5
    4962:	df5d                	beqz	a4,4920 <_malloc_r+0x6a>
    4964:	943a                	add	s0,s0,a4
    4966:	8f89                	sub	a5,a5,a0
    4968:	c01c                	sw	a5,0(s0)
    496a:	bf5d                	j	4920 <_malloc_r+0x6a>
    496c:	c35c                	sw	a5,4(a4)
    496e:	b7c5                	j	494e <_malloc_r+0x98>
    4970:	8722                	mv	a4,s0
    4972:	4040                	lw	s0,4(s0)
    4974:	bf85                	j	48e4 <_malloc_r+0x2e>
    4976:	00350413          	addi	s0,a0,3
    497a:	9871                	andi	s0,s0,-4
    497c:	fc8502e3          	beq	a0,s0,4940 <_malloc_r+0x8a>
    4980:	40a405b3          	sub	a1,s0,a0
    4984:	854a                	mv	a0,s2
    4986:	201000ef          	jal	ra,5386 <_sbrk_r>
    498a:	fb351be3          	bne	a0,s3,4940 <_malloc_r+0x8a>
    498e:	bfad                	j	4908 <_malloc_r+0x52>

00004990 <__ssputs_r>:
    4990:	1101                	addi	sp,sp,-32
    4992:	c84a                	sw	s2,16(sp)
    4994:	0085a903          	lw	s2,8(a1)
    4998:	cc22                	sw	s0,24(sp)
    499a:	c452                	sw	s4,8(sp)
    499c:	c05a                	sw	s6,0(sp)
    499e:	ce06                	sw	ra,28(sp)
    49a0:	ca26                	sw	s1,20(sp)
    49a2:	c64e                	sw	s3,12(sp)
    49a4:	c256                	sw	s5,4(sp)
    49a6:	842e                	mv	s0,a1
    49a8:	8b32                	mv	s6,a2
    49aa:	8a36                	mv	s4,a3
    49ac:	0926e963          	bltu	a3,s2,4a3e <__ssputs_r+0xae>
    49b0:	25de                	lhu	a5,12(a1)
    49b2:	4807f713          	andi	a4,a5,1152
    49b6:	c351                	beqz	a4,4a3a <__ssputs_r+0xaa>
    49b8:	4004                	lw	s1,0(s0)
    49ba:	498c                	lw	a1,16(a1)
    49bc:	4858                	lw	a4,20(s0)
    49be:	8aaa                	mv	s5,a0
    49c0:	40b489b3          	sub	s3,s1,a1
    49c4:	448d                	li	s1,3
    49c6:	02e484b3          	mul	s1,s1,a4
    49ca:	4709                	li	a4,2
    49cc:	02e4c4b3          	div	s1,s1,a4
    49d0:	00168713          	addi	a4,a3,1
    49d4:	974e                	add	a4,a4,s3
    49d6:	00e4f363          	bgeu	s1,a4,49dc <__ssputs_r+0x4c>
    49da:	84ba                	mv	s1,a4
    49dc:	4007f793          	andi	a5,a5,1024
    49e0:	cfbd                	beqz	a5,4a5e <__ssputs_r+0xce>
    49e2:	85a6                	mv	a1,s1
    49e4:	8556                	mv	a0,s5
    49e6:	ed1ff0ef          	jal	ra,48b6 <_malloc_r>
    49ea:	892a                	mv	s2,a0
    49ec:	e11d                	bnez	a0,4a12 <__ssputs_r+0x82>
    49ee:	47b1                	li	a5,12
    49f0:	00faa023          	sw	a5,0(s5)
    49f4:	245e                	lhu	a5,12(s0)
    49f6:	557d                	li	a0,-1
    49f8:	0407e793          	ori	a5,a5,64
    49fc:	a45e                	sh	a5,12(s0)
    49fe:	40f2                	lw	ra,28(sp)
    4a00:	4462                	lw	s0,24(sp)
    4a02:	44d2                	lw	s1,20(sp)
    4a04:	4942                	lw	s2,16(sp)
    4a06:	49b2                	lw	s3,12(sp)
    4a08:	4a22                	lw	s4,8(sp)
    4a0a:	4a92                	lw	s5,4(sp)
    4a0c:	4b02                	lw	s6,0(sp)
    4a0e:	6105                	addi	sp,sp,32
    4a10:	8082                	ret
    4a12:	480c                	lw	a1,16(s0)
    4a14:	864e                	mv	a2,s3
    4a16:	d5aff0ef          	jal	ra,3f70 <memcpy>
    4a1a:	245e                	lhu	a5,12(s0)
    4a1c:	b7f7f793          	andi	a5,a5,-1153
    4a20:	0807e793          	ori	a5,a5,128
    4a24:	a45e                	sh	a5,12(s0)
    4a26:	01242823          	sw	s2,16(s0)
    4a2a:	c844                	sw	s1,20(s0)
    4a2c:	994e                	add	s2,s2,s3
    4a2e:	413484b3          	sub	s1,s1,s3
    4a32:	01242023          	sw	s2,0(s0)
    4a36:	c404                	sw	s1,8(s0)
    4a38:	8952                	mv	s2,s4
    4a3a:	012a7363          	bgeu	s4,s2,4a40 <__ssputs_r+0xb0>
    4a3e:	8952                	mv	s2,s4
    4a40:	4008                	lw	a0,0(s0)
    4a42:	864a                	mv	a2,s2
    4a44:	85da                	mv	a1,s6
    4a46:	319000ef          	jal	ra,555e <memmove>
    4a4a:	441c                	lw	a5,8(s0)
    4a4c:	4501                	li	a0,0
    4a4e:	412787b3          	sub	a5,a5,s2
    4a52:	c41c                	sw	a5,8(s0)
    4a54:	401c                	lw	a5,0(s0)
    4a56:	993e                	add	s2,s2,a5
    4a58:	01242023          	sw	s2,0(s0)
    4a5c:	b74d                	j	49fe <__ssputs_r+0x6e>
    4a5e:	8626                	mv	a2,s1
    4a60:	8556                	mv	a0,s5
    4a62:	347000ef          	jal	ra,55a8 <_realloc_r>
    4a66:	892a                	mv	s2,a0
    4a68:	fd5d                	bnez	a0,4a26 <__ssputs_r+0x96>
    4a6a:	480c                	lw	a1,16(s0)
    4a6c:	8556                	mv	a0,s5
    4a6e:	da1ff0ef          	jal	ra,480e <_free_r>
    4a72:	bfb5                	j	49ee <__ssputs_r+0x5e>

00004a74 <_svfiprintf_r>:
    4a74:	25de                	lhu	a5,12(a1)
    4a76:	7171                	addi	sp,sp,-176
    4a78:	d326                	sw	s1,164(sp)
    4a7a:	d14a                	sw	s2,160(sp)
    4a7c:	cf4e                	sw	s3,156(sp)
    4a7e:	d706                	sw	ra,172(sp)
    4a80:	d522                	sw	s0,168(sp)
    4a82:	cd52                	sw	s4,152(sp)
    4a84:	cb56                	sw	s5,148(sp)
    4a86:	c95a                	sw	s6,144(sp)
    4a88:	c75e                	sw	s7,140(sp)
    4a8a:	c562                	sw	s8,136(sp)
    4a8c:	c366                	sw	s9,132(sp)
    4a8e:	0807f793          	andi	a5,a5,128
    4a92:	89aa                	mv	s3,a0
    4a94:	892e                	mv	s2,a1
    4a96:	84b2                	mv	s1,a2
    4a98:	c3b9                	beqz	a5,4ade <_svfiprintf_r+0x6a>
    4a9a:	499c                	lw	a5,16(a1)
    4a9c:	e3a9                	bnez	a5,4ade <_svfiprintf_r+0x6a>
    4a9e:	04000593          	li	a1,64
    4aa2:	c636                	sw	a3,12(sp)
    4aa4:	e13ff0ef          	jal	ra,48b6 <_malloc_r>
    4aa8:	00a92023          	sw	a0,0(s2)
    4aac:	00a92823          	sw	a0,16(s2)
    4ab0:	46b2                	lw	a3,12(sp)
    4ab2:	e115                	bnez	a0,4ad6 <_svfiprintf_r+0x62>
    4ab4:	47b1                	li	a5,12
    4ab6:	00f9a023          	sw	a5,0(s3)
    4aba:	557d                	li	a0,-1
    4abc:	50ba                	lw	ra,172(sp)
    4abe:	542a                	lw	s0,168(sp)
    4ac0:	549a                	lw	s1,164(sp)
    4ac2:	590a                	lw	s2,160(sp)
    4ac4:	49fa                	lw	s3,156(sp)
    4ac6:	4a6a                	lw	s4,152(sp)
    4ac8:	4ada                	lw	s5,148(sp)
    4aca:	4b4a                	lw	s6,144(sp)
    4acc:	4bba                	lw	s7,140(sp)
    4ace:	4c2a                	lw	s8,136(sp)
    4ad0:	4c9a                	lw	s9,132(sp)
    4ad2:	614d                	addi	sp,sp,176
    4ad4:	8082                	ret
    4ad6:	04000793          	li	a5,64
    4ada:	00f92a23          	sw	a5,20(s2)
    4ade:	02000793          	li	a5,32
    4ae2:	02f10ca3          	sb	a5,57(sp)
    4ae6:	03000793          	li	a5,48
    4aea:	da02                	sw	zero,52(sp)
    4aec:	02f10d23          	sb	a5,58(sp)
    4af0:	ce36                	sw	a3,28(sp)
    4af2:	02500b93          	li	s7,37
    4af6:	00002a97          	auipc	s5,0x2
    4afa:	1faa8a93          	addi	s5,s5,506 # 6cf0 <__sf_fake_stdout+0x20>
    4afe:	4c05                	li	s8,1
    4b00:	4b29                	li	s6,10
    4b02:	8426                	mv	s0,s1
    4b04:	201c                	lbu	a5,0(s0)
    4b06:	c399                	beqz	a5,4b0c <_svfiprintf_r+0x98>
    4b08:	09779963          	bne	a5,s7,4b9a <_svfiprintf_r+0x126>
    4b0c:	40940cb3          	sub	s9,s0,s1
    4b10:	000c8e63          	beqz	s9,4b2c <_svfiprintf_r+0xb8>
    4b14:	86e6                	mv	a3,s9
    4b16:	8626                	mv	a2,s1
    4b18:	85ca                	mv	a1,s2
    4b1a:	854e                	mv	a0,s3
    4b1c:	e75ff0ef          	jal	ra,4990 <__ssputs_r>
    4b20:	57fd                	li	a5,-1
    4b22:	18f50b63          	beq	a0,a5,4cb8 <_svfiprintf_r+0x244>
    4b26:	56d2                	lw	a3,52(sp)
    4b28:	96e6                	add	a3,a3,s9
    4b2a:	da36                	sw	a3,52(sp)
    4b2c:	201c                	lbu	a5,0(s0)
    4b2e:	18078563          	beqz	a5,4cb8 <_svfiprintf_r+0x244>
    4b32:	57fd                	li	a5,-1
    4b34:	00140493          	addi	s1,s0,1
    4b38:	d002                	sw	zero,32(sp)
    4b3a:	d602                	sw	zero,44(sp)
    4b3c:	d23e                	sw	a5,36(sp)
    4b3e:	d402                	sw	zero,40(sp)
    4b40:	060101a3          	sb	zero,99(sp)
    4b44:	dc82                	sw	zero,120(sp)
    4b46:	208c                	lbu	a1,0(s1)
    4b48:	4615                	li	a2,5
    4b4a:	8556                	mv	a0,s5
    4b4c:	c0cff0ef          	jal	ra,3f58 <memchr>
    4b50:	00148413          	addi	s0,s1,1
    4b54:	5782                	lw	a5,32(sp)
    4b56:	e521                	bnez	a0,4b9e <_svfiprintf_r+0x12a>
    4b58:	0107f713          	andi	a4,a5,16
    4b5c:	c709                	beqz	a4,4b66 <_svfiprintf_r+0xf2>
    4b5e:	02000713          	li	a4,32
    4b62:	06e101a3          	sb	a4,99(sp)
    4b66:	0087f713          	andi	a4,a5,8
    4b6a:	c709                	beqz	a4,4b74 <_svfiprintf_r+0x100>
    4b6c:	02b00713          	li	a4,43
    4b70:	06e101a3          	sb	a4,99(sp)
    4b74:	2094                	lbu	a3,0(s1)
    4b76:	02a00713          	li	a4,42
    4b7a:	02e68a63          	beq	a3,a4,4bae <_svfiprintf_r+0x13a>
    4b7e:	57b2                	lw	a5,44(sp)
    4b80:	8426                	mv	s0,s1
    4b82:	4681                	li	a3,0
    4b84:	4625                	li	a2,9
    4b86:	2018                	lbu	a4,0(s0)
    4b88:	00140593          	addi	a1,s0,1
    4b8c:	fd070713          	addi	a4,a4,-48 # ffffdfd0 <_eusrstack+0xdfff8fd0>
    4b90:	06e67263          	bgeu	a2,a4,4bf4 <_svfiprintf_r+0x180>
    4b94:	c68d                	beqz	a3,4bbe <_svfiprintf_r+0x14a>
    4b96:	d63e                	sw	a5,44(sp)
    4b98:	a01d                	j	4bbe <_svfiprintf_r+0x14a>
    4b9a:	0405                	addi	s0,s0,1
    4b9c:	b7a5                	j	4b04 <_svfiprintf_r+0x90>
    4b9e:	41550533          	sub	a0,a0,s5
    4ba2:	00ac1533          	sll	a0,s8,a0
    4ba6:	8fc9                	or	a5,a5,a0
    4ba8:	d03e                	sw	a5,32(sp)
    4baa:	84a2                	mv	s1,s0
    4bac:	bf69                	j	4b46 <_svfiprintf_r+0xd2>
    4bae:	4772                	lw	a4,28(sp)
    4bb0:	00470693          	addi	a3,a4,4
    4bb4:	4318                	lw	a4,0(a4)
    4bb6:	ce36                	sw	a3,28(sp)
    4bb8:	02074763          	bltz	a4,4be6 <_svfiprintf_r+0x172>
    4bbc:	d63a                	sw	a4,44(sp)
    4bbe:	2018                	lbu	a4,0(s0)
    4bc0:	02e00793          	li	a5,46
    4bc4:	04f71d63          	bne	a4,a5,4c1e <_svfiprintf_r+0x1aa>
    4bc8:	3018                	lbu	a4,1(s0)
    4bca:	02a00793          	li	a5,42
    4bce:	02f71b63          	bne	a4,a5,4c04 <_svfiprintf_r+0x190>
    4bd2:	47f2                	lw	a5,28(sp)
    4bd4:	0409                	addi	s0,s0,2
    4bd6:	00478713          	addi	a4,a5,4
    4bda:	439c                	lw	a5,0(a5)
    4bdc:	ce3a                	sw	a4,28(sp)
    4bde:	0207c163          	bltz	a5,4c00 <_svfiprintf_r+0x18c>
    4be2:	d23e                	sw	a5,36(sp)
    4be4:	a82d                	j	4c1e <_svfiprintf_r+0x1aa>
    4be6:	40e00733          	neg	a4,a4
    4bea:	0027e793          	ori	a5,a5,2
    4bee:	d63a                	sw	a4,44(sp)
    4bf0:	d03e                	sw	a5,32(sp)
    4bf2:	b7f1                	j	4bbe <_svfiprintf_r+0x14a>
    4bf4:	036787b3          	mul	a5,a5,s6
    4bf8:	4685                	li	a3,1
    4bfa:	842e                	mv	s0,a1
    4bfc:	97ba                	add	a5,a5,a4
    4bfe:	b761                	j	4b86 <_svfiprintf_r+0x112>
    4c00:	57fd                	li	a5,-1
    4c02:	b7c5                	j	4be2 <_svfiprintf_r+0x16e>
    4c04:	0405                	addi	s0,s0,1
    4c06:	d202                	sw	zero,36(sp)
    4c08:	4681                	li	a3,0
    4c0a:	4781                	li	a5,0
    4c0c:	4625                	li	a2,9
    4c0e:	2018                	lbu	a4,0(s0)
    4c10:	00140593          	addi	a1,s0,1
    4c14:	fd070713          	addi	a4,a4,-48
    4c18:	06e67663          	bgeu	a2,a4,4c84 <_svfiprintf_r+0x210>
    4c1c:	f2f9                	bnez	a3,4be2 <_svfiprintf_r+0x16e>
    4c1e:	200c                	lbu	a1,0(s0)
    4c20:	460d                	li	a2,3
    4c22:	00002517          	auipc	a0,0x2
    4c26:	0d650513          	addi	a0,a0,214 # 6cf8 <__sf_fake_stdout+0x28>
    4c2a:	b2eff0ef          	jal	ra,3f58 <memchr>
    4c2e:	cd11                	beqz	a0,4c4a <_svfiprintf_r+0x1d6>
    4c30:	00002797          	auipc	a5,0x2
    4c34:	0c878793          	addi	a5,a5,200 # 6cf8 <__sf_fake_stdout+0x28>
    4c38:	8d1d                	sub	a0,a0,a5
    4c3a:	04000793          	li	a5,64
    4c3e:	00a797b3          	sll	a5,a5,a0
    4c42:	5502                	lw	a0,32(sp)
    4c44:	0405                	addi	s0,s0,1
    4c46:	8d5d                	or	a0,a0,a5
    4c48:	d02a                	sw	a0,32(sp)
    4c4a:	200c                	lbu	a1,0(s0)
    4c4c:	4619                	li	a2,6
    4c4e:	00002517          	auipc	a0,0x2
    4c52:	0ae50513          	addi	a0,a0,174 # 6cfc <__sf_fake_stdout+0x2c>
    4c56:	00140493          	addi	s1,s0,1
    4c5a:	02b10c23          	sb	a1,56(sp)
    4c5e:	afaff0ef          	jal	ra,3f58 <memchr>
    4c62:	c525                	beqz	a0,4cca <_svfiprintf_r+0x256>
    4c64:	ffffb797          	auipc	a5,0xffffb
    4c68:	39c78793          	addi	a5,a5,924 # 0 <_sinit>
    4c6c:	e795                	bnez	a5,4c98 <_svfiprintf_r+0x224>
    4c6e:	5702                	lw	a4,32(sp)
    4c70:	47f2                	lw	a5,28(sp)
    4c72:	10077713          	andi	a4,a4,256
    4c76:	cf09                	beqz	a4,4c90 <_svfiprintf_r+0x21c>
    4c78:	0791                	addi	a5,a5,4
    4c7a:	ce3e                	sw	a5,28(sp)
    4c7c:	57d2                	lw	a5,52(sp)
    4c7e:	97d2                	add	a5,a5,s4
    4c80:	da3e                	sw	a5,52(sp)
    4c82:	b541                	j	4b02 <_svfiprintf_r+0x8e>
    4c84:	036787b3          	mul	a5,a5,s6
    4c88:	4685                	li	a3,1
    4c8a:	842e                	mv	s0,a1
    4c8c:	97ba                	add	a5,a5,a4
    4c8e:	b741                	j	4c0e <_svfiprintf_r+0x19a>
    4c90:	079d                	addi	a5,a5,7
    4c92:	9be1                	andi	a5,a5,-8
    4c94:	07a1                	addi	a5,a5,8
    4c96:	b7d5                	j	4c7a <_svfiprintf_r+0x206>
    4c98:	0878                	addi	a4,sp,28
    4c9a:	00000697          	auipc	a3,0x0
    4c9e:	cf668693          	addi	a3,a3,-778 # 4990 <__ssputs_r>
    4ca2:	864a                	mv	a2,s2
    4ca4:	100c                	addi	a1,sp,32
    4ca6:	854e                	mv	a0,s3
    4ca8:	00000097          	auipc	ra,0x0
    4cac:	000000e7          	jalr	zero # 0 <_sinit>
    4cb0:	57fd                	li	a5,-1
    4cb2:	8a2a                	mv	s4,a0
    4cb4:	fcf514e3          	bne	a0,a5,4c7c <_svfiprintf_r+0x208>
    4cb8:	00c95783          	lhu	a5,12(s2)
    4cbc:	557d                	li	a0,-1
    4cbe:	0407f793          	andi	a5,a5,64
    4cc2:	de079de3          	bnez	a5,4abc <_svfiprintf_r+0x48>
    4cc6:	5552                	lw	a0,52(sp)
    4cc8:	bbd5                	j	4abc <_svfiprintf_r+0x48>
    4cca:	0878                	addi	a4,sp,28
    4ccc:	00000697          	auipc	a3,0x0
    4cd0:	cc468693          	addi	a3,a3,-828 # 4990 <__ssputs_r>
    4cd4:	864a                	mv	a2,s2
    4cd6:	100c                	addi	a1,sp,32
    4cd8:	854e                	mv	a0,s3
    4cda:	2121                	jal	50e2 <_printf_i>
    4cdc:	bfd1                	j	4cb0 <_svfiprintf_r+0x23c>

00004cde <__sfputc_r>:
    4cde:	461c                	lw	a5,8(a2)
    4ce0:	17fd                	addi	a5,a5,-1
    4ce2:	c61c                	sw	a5,8(a2)
    4ce4:	0007da63          	bgez	a5,4cf8 <__sfputc_r+0x1a>
    4ce8:	4e18                	lw	a4,24(a2)
    4cea:	00e7c563          	blt	a5,a4,4cf4 <__sfputc_r+0x16>
    4cee:	47a9                	li	a5,10
    4cf0:	00f59463          	bne	a1,a5,4cf8 <__sfputc_r+0x1a>
    4cf4:	cb6ff06f          	j	41aa <__swbuf_r>
    4cf8:	421c                	lw	a5,0(a2)
    4cfa:	852e                	mv	a0,a1
    4cfc:	00178713          	addi	a4,a5,1
    4d00:	c218                	sw	a4,0(a2)
    4d02:	a38c                	sb	a1,0(a5)
    4d04:	8082                	ret

00004d06 <__sfputs_r>:
    4d06:	1101                	addi	sp,sp,-32
    4d08:	cc22                	sw	s0,24(sp)
    4d0a:	ca26                	sw	s1,20(sp)
    4d0c:	c84a                	sw	s2,16(sp)
    4d0e:	c64e                	sw	s3,12(sp)
    4d10:	c452                	sw	s4,8(sp)
    4d12:	ce06                	sw	ra,28(sp)
    4d14:	892a                	mv	s2,a0
    4d16:	89ae                	mv	s3,a1
    4d18:	8432                	mv	s0,a2
    4d1a:	00d604b3          	add	s1,a2,a3
    4d1e:	5a7d                	li	s4,-1
    4d20:	00941463          	bne	s0,s1,4d28 <__sfputs_r+0x22>
    4d24:	4501                	li	a0,0
    4d26:	a809                	j	4d38 <__sfputs_r+0x32>
    4d28:	200c                	lbu	a1,0(s0)
    4d2a:	864e                	mv	a2,s3
    4d2c:	854a                	mv	a0,s2
    4d2e:	fb1ff0ef          	jal	ra,4cde <__sfputc_r>
    4d32:	0405                	addi	s0,s0,1
    4d34:	ff4516e3          	bne	a0,s4,4d20 <__sfputs_r+0x1a>
    4d38:	40f2                	lw	ra,28(sp)
    4d3a:	4462                	lw	s0,24(sp)
    4d3c:	44d2                	lw	s1,20(sp)
    4d3e:	4942                	lw	s2,16(sp)
    4d40:	49b2                	lw	s3,12(sp)
    4d42:	4a22                	lw	s4,8(sp)
    4d44:	6105                	addi	sp,sp,32
    4d46:	8082                	ret

00004d48 <_vfiprintf_r>:
    4d48:	7135                	addi	sp,sp,-160
    4d4a:	cd22                	sw	s0,152(sp)
    4d4c:	cb26                	sw	s1,148(sp)
    4d4e:	c94a                	sw	s2,144(sp)
    4d50:	c74e                	sw	s3,140(sp)
    4d52:	cf06                	sw	ra,156(sp)
    4d54:	c552                	sw	s4,136(sp)
    4d56:	c356                	sw	s5,132(sp)
    4d58:	c15a                	sw	s6,128(sp)
    4d5a:	dede                	sw	s7,124(sp)
    4d5c:	dce2                	sw	s8,120(sp)
    4d5e:	dae6                	sw	s9,116(sp)
    4d60:	89aa                	mv	s3,a0
    4d62:	84ae                	mv	s1,a1
    4d64:	8932                	mv	s2,a2
    4d66:	8436                	mv	s0,a3
    4d68:	c509                	beqz	a0,4d72 <_vfiprintf_r+0x2a>
    4d6a:	4d1c                	lw	a5,24(a0)
    4d6c:	e399                	bnez	a5,4d72 <_vfiprintf_r+0x2a>
    4d6e:	841ff0ef          	jal	ra,45ae <__sinit>
    4d72:	00002797          	auipc	a5,0x2
    4d76:	f3e78793          	addi	a5,a5,-194 # 6cb0 <__sf_fake_stdin>
    4d7a:	0cf49963          	bne	s1,a5,4e4c <_vfiprintf_r+0x104>
    4d7e:	0049a483          	lw	s1,4(s3)
    4d82:	24de                	lhu	a5,12(s1)
    4d84:	8ba1                	andi	a5,a5,8
    4d86:	c7ed                	beqz	a5,4e70 <_vfiprintf_r+0x128>
    4d88:	489c                	lw	a5,16(s1)
    4d8a:	c3fd                	beqz	a5,4e70 <_vfiprintf_r+0x128>
    4d8c:	02000793          	li	a5,32
    4d90:	02f104a3          	sb	a5,41(sp)
    4d94:	03000793          	li	a5,48
    4d98:	d202                	sw	zero,36(sp)
    4d9a:	02f10523          	sb	a5,42(sp)
    4d9e:	c622                	sw	s0,12(sp)
    4da0:	02500b93          	li	s7,37
    4da4:	00002a97          	auipc	s5,0x2
    4da8:	f4ca8a93          	addi	s5,s5,-180 # 6cf0 <__sf_fake_stdout+0x20>
    4dac:	4c05                	li	s8,1
    4dae:	4b29                	li	s6,10
    4db0:	844a                	mv	s0,s2
    4db2:	201c                	lbu	a5,0(s0)
    4db4:	c399                	beqz	a5,4dba <_vfiprintf_r+0x72>
    4db6:	0f779063          	bne	a5,s7,4e96 <_vfiprintf_r+0x14e>
    4dba:	41240cb3          	sub	s9,s0,s2
    4dbe:	000c8e63          	beqz	s9,4dda <_vfiprintf_r+0x92>
    4dc2:	86e6                	mv	a3,s9
    4dc4:	864a                	mv	a2,s2
    4dc6:	85a6                	mv	a1,s1
    4dc8:	854e                	mv	a0,s3
    4dca:	f3dff0ef          	jal	ra,4d06 <__sfputs_r>
    4dce:	57fd                	li	a5,-1
    4dd0:	1ef50263          	beq	a0,a5,4fb4 <_vfiprintf_r+0x26c>
    4dd4:	5692                	lw	a3,36(sp)
    4dd6:	96e6                	add	a3,a3,s9
    4dd8:	d236                	sw	a3,36(sp)
    4dda:	201c                	lbu	a5,0(s0)
    4ddc:	1c078c63          	beqz	a5,4fb4 <_vfiprintf_r+0x26c>
    4de0:	57fd                	li	a5,-1
    4de2:	00140913          	addi	s2,s0,1
    4de6:	c802                	sw	zero,16(sp)
    4de8:	ce02                	sw	zero,28(sp)
    4dea:	ca3e                	sw	a5,20(sp)
    4dec:	cc02                	sw	zero,24(sp)
    4dee:	040109a3          	sb	zero,83(sp)
    4df2:	d482                	sw	zero,104(sp)
    4df4:	00094583          	lbu	a1,0(s2)
    4df8:	4615                	li	a2,5
    4dfa:	8556                	mv	a0,s5
    4dfc:	95cff0ef          	jal	ra,3f58 <memchr>
    4e00:	00190413          	addi	s0,s2,1
    4e04:	47c2                	lw	a5,16(sp)
    4e06:	e951                	bnez	a0,4e9a <_vfiprintf_r+0x152>
    4e08:	0107f713          	andi	a4,a5,16
    4e0c:	c709                	beqz	a4,4e16 <_vfiprintf_r+0xce>
    4e0e:	02000713          	li	a4,32
    4e12:	04e109a3          	sb	a4,83(sp)
    4e16:	0087f713          	andi	a4,a5,8
    4e1a:	c709                	beqz	a4,4e24 <_vfiprintf_r+0xdc>
    4e1c:	02b00713          	li	a4,43
    4e20:	04e109a3          	sb	a4,83(sp)
    4e24:	00094683          	lbu	a3,0(s2)
    4e28:	02a00713          	li	a4,42
    4e2c:	06e68f63          	beq	a3,a4,4eaa <_vfiprintf_r+0x162>
    4e30:	47f2                	lw	a5,28(sp)
    4e32:	844a                	mv	s0,s2
    4e34:	4681                	li	a3,0
    4e36:	4625                	li	a2,9
    4e38:	2018                	lbu	a4,0(s0)
    4e3a:	00140593          	addi	a1,s0,1
    4e3e:	fd070713          	addi	a4,a4,-48
    4e42:	0ae67763          	bgeu	a2,a4,4ef0 <_vfiprintf_r+0x1a8>
    4e46:	cab5                	beqz	a3,4eba <_vfiprintf_r+0x172>
    4e48:	ce3e                	sw	a5,28(sp)
    4e4a:	a885                	j	4eba <_vfiprintf_r+0x172>
    4e4c:	00002797          	auipc	a5,0x2
    4e50:	e8478793          	addi	a5,a5,-380 # 6cd0 <__sf_fake_stdout>
    4e54:	00f49563          	bne	s1,a5,4e5e <_vfiprintf_r+0x116>
    4e58:	0089a483          	lw	s1,8(s3)
    4e5c:	b71d                	j	4d82 <_vfiprintf_r+0x3a>
    4e5e:	00002797          	auipc	a5,0x2
    4e62:	e3278793          	addi	a5,a5,-462 # 6c90 <__sf_fake_stderr>
    4e66:	f0f49ee3          	bne	s1,a5,4d82 <_vfiprintf_r+0x3a>
    4e6a:	00c9a483          	lw	s1,12(s3)
    4e6e:	bf11                	j	4d82 <_vfiprintf_r+0x3a>
    4e70:	85a6                	mv	a1,s1
    4e72:	854e                	mv	a0,s3
    4e74:	bf2ff0ef          	jal	ra,4266 <__swsetup_r>
    4e78:	d911                	beqz	a0,4d8c <_vfiprintf_r+0x44>
    4e7a:	557d                	li	a0,-1
    4e7c:	40fa                	lw	ra,156(sp)
    4e7e:	446a                	lw	s0,152(sp)
    4e80:	44da                	lw	s1,148(sp)
    4e82:	494a                	lw	s2,144(sp)
    4e84:	49ba                	lw	s3,140(sp)
    4e86:	4a2a                	lw	s4,136(sp)
    4e88:	4a9a                	lw	s5,132(sp)
    4e8a:	4b0a                	lw	s6,128(sp)
    4e8c:	5bf6                	lw	s7,124(sp)
    4e8e:	5c66                	lw	s8,120(sp)
    4e90:	5cd6                	lw	s9,116(sp)
    4e92:	610d                	addi	sp,sp,160
    4e94:	8082                	ret
    4e96:	0405                	addi	s0,s0,1
    4e98:	bf29                	j	4db2 <_vfiprintf_r+0x6a>
    4e9a:	41550533          	sub	a0,a0,s5
    4e9e:	00ac1533          	sll	a0,s8,a0
    4ea2:	8fc9                	or	a5,a5,a0
    4ea4:	c83e                	sw	a5,16(sp)
    4ea6:	8922                	mv	s2,s0
    4ea8:	b7b1                	j	4df4 <_vfiprintf_r+0xac>
    4eaa:	4732                	lw	a4,12(sp)
    4eac:	00470693          	addi	a3,a4,4
    4eb0:	4318                	lw	a4,0(a4)
    4eb2:	c636                	sw	a3,12(sp)
    4eb4:	02074763          	bltz	a4,4ee2 <_vfiprintf_r+0x19a>
    4eb8:	ce3a                	sw	a4,28(sp)
    4eba:	2018                	lbu	a4,0(s0)
    4ebc:	02e00793          	li	a5,46
    4ec0:	04f71d63          	bne	a4,a5,4f1a <_vfiprintf_r+0x1d2>
    4ec4:	3018                	lbu	a4,1(s0)
    4ec6:	02a00793          	li	a5,42
    4eca:	02f71b63          	bne	a4,a5,4f00 <_vfiprintf_r+0x1b8>
    4ece:	47b2                	lw	a5,12(sp)
    4ed0:	0409                	addi	s0,s0,2
    4ed2:	00478713          	addi	a4,a5,4
    4ed6:	439c                	lw	a5,0(a5)
    4ed8:	c63a                	sw	a4,12(sp)
    4eda:	0207c163          	bltz	a5,4efc <_vfiprintf_r+0x1b4>
    4ede:	ca3e                	sw	a5,20(sp)
    4ee0:	a82d                	j	4f1a <_vfiprintf_r+0x1d2>
    4ee2:	40e00733          	neg	a4,a4
    4ee6:	0027e793          	ori	a5,a5,2
    4eea:	ce3a                	sw	a4,28(sp)
    4eec:	c83e                	sw	a5,16(sp)
    4eee:	b7f1                	j	4eba <_vfiprintf_r+0x172>
    4ef0:	036787b3          	mul	a5,a5,s6
    4ef4:	4685                	li	a3,1
    4ef6:	842e                	mv	s0,a1
    4ef8:	97ba                	add	a5,a5,a4
    4efa:	bf3d                	j	4e38 <_vfiprintf_r+0xf0>
    4efc:	57fd                	li	a5,-1
    4efe:	b7c5                	j	4ede <_vfiprintf_r+0x196>
    4f00:	0405                	addi	s0,s0,1
    4f02:	ca02                	sw	zero,20(sp)
    4f04:	4681                	li	a3,0
    4f06:	4781                	li	a5,0
    4f08:	4625                	li	a2,9
    4f0a:	2018                	lbu	a4,0(s0)
    4f0c:	00140593          	addi	a1,s0,1
    4f10:	fd070713          	addi	a4,a4,-48
    4f14:	06e67663          	bgeu	a2,a4,4f80 <_vfiprintf_r+0x238>
    4f18:	f2f9                	bnez	a3,4ede <_vfiprintf_r+0x196>
    4f1a:	200c                	lbu	a1,0(s0)
    4f1c:	460d                	li	a2,3
    4f1e:	00002517          	auipc	a0,0x2
    4f22:	dda50513          	addi	a0,a0,-550 # 6cf8 <__sf_fake_stdout+0x28>
    4f26:	832ff0ef          	jal	ra,3f58 <memchr>
    4f2a:	cd11                	beqz	a0,4f46 <_vfiprintf_r+0x1fe>
    4f2c:	00002797          	auipc	a5,0x2
    4f30:	dcc78793          	addi	a5,a5,-564 # 6cf8 <__sf_fake_stdout+0x28>
    4f34:	8d1d                	sub	a0,a0,a5
    4f36:	04000793          	li	a5,64
    4f3a:	00a797b3          	sll	a5,a5,a0
    4f3e:	4542                	lw	a0,16(sp)
    4f40:	0405                	addi	s0,s0,1
    4f42:	8d5d                	or	a0,a0,a5
    4f44:	c82a                	sw	a0,16(sp)
    4f46:	200c                	lbu	a1,0(s0)
    4f48:	4619                	li	a2,6
    4f4a:	00002517          	auipc	a0,0x2
    4f4e:	db250513          	addi	a0,a0,-590 # 6cfc <__sf_fake_stdout+0x2c>
    4f52:	00140913          	addi	s2,s0,1
    4f56:	02b10423          	sb	a1,40(sp)
    4f5a:	ffffe0ef          	jal	ra,3f58 <memchr>
    4f5e:	c135                	beqz	a0,4fc2 <_vfiprintf_r+0x27a>
    4f60:	ffffb797          	auipc	a5,0xffffb
    4f64:	0a078793          	addi	a5,a5,160 # 0 <_sinit>
    4f68:	e795                	bnez	a5,4f94 <_vfiprintf_r+0x24c>
    4f6a:	4742                	lw	a4,16(sp)
    4f6c:	47b2                	lw	a5,12(sp)
    4f6e:	10077713          	andi	a4,a4,256
    4f72:	cf09                	beqz	a4,4f8c <_vfiprintf_r+0x244>
    4f74:	0791                	addi	a5,a5,4
    4f76:	c63e                	sw	a5,12(sp)
    4f78:	5792                	lw	a5,36(sp)
    4f7a:	97d2                	add	a5,a5,s4
    4f7c:	d23e                	sw	a5,36(sp)
    4f7e:	bd0d                	j	4db0 <_vfiprintf_r+0x68>
    4f80:	036787b3          	mul	a5,a5,s6
    4f84:	4685                	li	a3,1
    4f86:	842e                	mv	s0,a1
    4f88:	97ba                	add	a5,a5,a4
    4f8a:	b741                	j	4f0a <_vfiprintf_r+0x1c2>
    4f8c:	079d                	addi	a5,a5,7
    4f8e:	9be1                	andi	a5,a5,-8
    4f90:	07a1                	addi	a5,a5,8
    4f92:	b7d5                	j	4f76 <_vfiprintf_r+0x22e>
    4f94:	0078                	addi	a4,sp,12
    4f96:	00000697          	auipc	a3,0x0
    4f9a:	d7068693          	addi	a3,a3,-656 # 4d06 <__sfputs_r>
    4f9e:	8626                	mv	a2,s1
    4fa0:	080c                	addi	a1,sp,16
    4fa2:	854e                	mv	a0,s3
    4fa4:	00000097          	auipc	ra,0x0
    4fa8:	000000e7          	jalr	zero # 0 <_sinit>
    4fac:	57fd                	li	a5,-1
    4fae:	8a2a                	mv	s4,a0
    4fb0:	fcf514e3          	bne	a0,a5,4f78 <_vfiprintf_r+0x230>
    4fb4:	24de                	lhu	a5,12(s1)
    4fb6:	0407f793          	andi	a5,a5,64
    4fba:	ec0790e3          	bnez	a5,4e7a <_vfiprintf_r+0x132>
    4fbe:	5512                	lw	a0,36(sp)
    4fc0:	bd75                	j	4e7c <_vfiprintf_r+0x134>
    4fc2:	0078                	addi	a4,sp,12
    4fc4:	00000697          	auipc	a3,0x0
    4fc8:	d4268693          	addi	a3,a3,-702 # 4d06 <__sfputs_r>
    4fcc:	8626                	mv	a2,s1
    4fce:	080c                	addi	a1,sp,16
    4fd0:	854e                	mv	a0,s3
    4fd2:	2a01                	jal	50e2 <_printf_i>
    4fd4:	bfe1                	j	4fac <_vfiprintf_r+0x264>

00004fd6 <_printf_common>:
    4fd6:	7179                	addi	sp,sp,-48
    4fd8:	ca56                	sw	s5,20(sp)
    4fda:	499c                	lw	a5,16(a1)
    4fdc:	8aba                	mv	s5,a4
    4fde:	4598                	lw	a4,8(a1)
    4fe0:	d422                	sw	s0,40(sp)
    4fe2:	d226                	sw	s1,36(sp)
    4fe4:	ce4e                	sw	s3,28(sp)
    4fe6:	cc52                	sw	s4,24(sp)
    4fe8:	d606                	sw	ra,44(sp)
    4fea:	d04a                	sw	s2,32(sp)
    4fec:	c85a                	sw	s6,16(sp)
    4fee:	c65e                	sw	s7,12(sp)
    4ff0:	89aa                	mv	s3,a0
    4ff2:	842e                	mv	s0,a1
    4ff4:	84b2                	mv	s1,a2
    4ff6:	8a36                	mv	s4,a3
    4ff8:	00e7d363          	bge	a5,a4,4ffe <_printf_common+0x28>
    4ffc:	87ba                	mv	a5,a4
    4ffe:	c09c                	sw	a5,0(s1)
    5000:	04344703          	lbu	a4,67(s0)
    5004:	c319                	beqz	a4,500a <_printf_common+0x34>
    5006:	0785                	addi	a5,a5,1
    5008:	c09c                	sw	a5,0(s1)
    500a:	401c                	lw	a5,0(s0)
    500c:	0207f793          	andi	a5,a5,32
    5010:	c781                	beqz	a5,5018 <_printf_common+0x42>
    5012:	409c                	lw	a5,0(s1)
    5014:	0789                	addi	a5,a5,2
    5016:	c09c                	sw	a5,0(s1)
    5018:	00042903          	lw	s2,0(s0)
    501c:	00697913          	andi	s2,s2,6
    5020:	00091a63          	bnez	s2,5034 <_printf_common+0x5e>
    5024:	01940b13          	addi	s6,s0,25
    5028:	5bfd                	li	s7,-1
    502a:	445c                	lw	a5,12(s0)
    502c:	4098                	lw	a4,0(s1)
    502e:	8f99                	sub	a5,a5,a4
    5030:	04f94c63          	blt	s2,a5,5088 <_printf_common+0xb2>
    5034:	401c                	lw	a5,0(s0)
    5036:	04344683          	lbu	a3,67(s0)
    503a:	0207f793          	andi	a5,a5,32
    503e:	00d036b3          	snez	a3,a3
    5042:	eba5                	bnez	a5,50b2 <_printf_common+0xdc>
    5044:	04340613          	addi	a2,s0,67
    5048:	85d2                	mv	a1,s4
    504a:	854e                	mv	a0,s3
    504c:	9a82                	jalr	s5
    504e:	57fd                	li	a5,-1
    5050:	04f50363          	beq	a0,a5,5096 <_printf_common+0xc0>
    5054:	401c                	lw	a5,0(s0)
    5056:	4611                	li	a2,4
    5058:	4098                	lw	a4,0(s1)
    505a:	8b99                	andi	a5,a5,6
    505c:	4454                	lw	a3,12(s0)
    505e:	4481                	li	s1,0
    5060:	00c79763          	bne	a5,a2,506e <_printf_common+0x98>
    5064:	40e684b3          	sub	s1,a3,a4
    5068:	0004d363          	bgez	s1,506e <_printf_common+0x98>
    506c:	4481                	li	s1,0
    506e:	441c                	lw	a5,8(s0)
    5070:	4818                	lw	a4,16(s0)
    5072:	00f75463          	bge	a4,a5,507a <_printf_common+0xa4>
    5076:	8f99                	sub	a5,a5,a4
    5078:	94be                	add	s1,s1,a5
    507a:	4901                	li	s2,0
    507c:	0469                	addi	s0,s0,26
    507e:	5b7d                	li	s6,-1
    5080:	05249863          	bne	s1,s2,50d0 <_printf_common+0xfa>
    5084:	4501                	li	a0,0
    5086:	a809                	j	5098 <_printf_common+0xc2>
    5088:	4685                	li	a3,1
    508a:	865a                	mv	a2,s6
    508c:	85d2                	mv	a1,s4
    508e:	854e                	mv	a0,s3
    5090:	9a82                	jalr	s5
    5092:	01751e63          	bne	a0,s7,50ae <_printf_common+0xd8>
    5096:	557d                	li	a0,-1
    5098:	50b2                	lw	ra,44(sp)
    509a:	5422                	lw	s0,40(sp)
    509c:	5492                	lw	s1,36(sp)
    509e:	5902                	lw	s2,32(sp)
    50a0:	49f2                	lw	s3,28(sp)
    50a2:	4a62                	lw	s4,24(sp)
    50a4:	4ad2                	lw	s5,20(sp)
    50a6:	4b42                	lw	s6,16(sp)
    50a8:	4bb2                	lw	s7,12(sp)
    50aa:	6145                	addi	sp,sp,48
    50ac:	8082                	ret
    50ae:	0905                	addi	s2,s2,1
    50b0:	bfad                	j	502a <_printf_common+0x54>
    50b2:	00d40733          	add	a4,s0,a3
    50b6:	03000613          	li	a2,48
    50ba:	04c701a3          	sb	a2,67(a4)
    50be:	04544703          	lbu	a4,69(s0)
    50c2:	00168793          	addi	a5,a3,1
    50c6:	97a2                	add	a5,a5,s0
    50c8:	0689                	addi	a3,a3,2
    50ca:	04e781a3          	sb	a4,67(a5)
    50ce:	bf9d                	j	5044 <_printf_common+0x6e>
    50d0:	4685                	li	a3,1
    50d2:	8622                	mv	a2,s0
    50d4:	85d2                	mv	a1,s4
    50d6:	854e                	mv	a0,s3
    50d8:	9a82                	jalr	s5
    50da:	fb650ee3          	beq	a0,s6,5096 <_printf_common+0xc0>
    50de:	0905                	addi	s2,s2,1
    50e0:	b745                	j	5080 <_printf_common+0xaa>

000050e2 <_printf_i>:
    50e2:	7179                	addi	sp,sp,-48
    50e4:	d422                	sw	s0,40(sp)
    50e6:	d226                	sw	s1,36(sp)
    50e8:	d04a                	sw	s2,32(sp)
    50ea:	ce4e                	sw	s3,28(sp)
    50ec:	d606                	sw	ra,44(sp)
    50ee:	cc52                	sw	s4,24(sp)
    50f0:	ca56                	sw	s5,20(sp)
    50f2:	c85a                	sw	s6,16(sp)
    50f4:	89b6                	mv	s3,a3
    50f6:	2d94                	lbu	a3,24(a1)
    50f8:	06900793          	li	a5,105
    50fc:	8932                	mv	s2,a2
    50fe:	84aa                	mv	s1,a0
    5100:	842e                	mv	s0,a1
    5102:	04358613          	addi	a2,a1,67
    5106:	02f68d63          	beq	a3,a5,5140 <_printf_i+0x5e>
    510a:	06d7e263          	bltu	a5,a3,516e <_printf_i+0x8c>
    510e:	05800793          	li	a5,88
    5112:	18f68763          	beq	a3,a5,52a0 <_printf_i+0x1be>
    5116:	00d7ed63          	bltu	a5,a3,5130 <_printf_i+0x4e>
    511a:	20068f63          	beqz	a3,5338 <_printf_i+0x256>
    511e:	04300793          	li	a5,67
    5122:	0af68f63          	beq	a3,a5,51e0 <_printf_i+0xfe>
    5126:	04240a93          	addi	s5,s0,66
    512a:	04d40123          	sb	a3,66(s0)
    512e:	a0d1                	j	51f2 <_printf_i+0x110>
    5130:	06300793          	li	a5,99
    5134:	0af68663          	beq	a3,a5,51e0 <_printf_i+0xfe>
    5138:	06400793          	li	a5,100
    513c:	fef695e3          	bne	a3,a5,5126 <_printf_i+0x44>
    5140:	401c                	lw	a5,0(s0)
    5142:	4308                	lw	a0,0(a4)
    5144:	0807f693          	andi	a3,a5,128
    5148:	00450593          	addi	a1,a0,4
    514c:	c6cd                	beqz	a3,51f6 <_printf_i+0x114>
    514e:	411c                	lw	a5,0(a0)
    5150:	c30c                	sw	a1,0(a4)
    5152:	0007d863          	bgez	a5,5162 <_printf_i+0x80>
    5156:	02d00713          	li	a4,45
    515a:	40f007b3          	neg	a5,a5
    515e:	04e401a3          	sb	a4,67(s0)
    5162:	00002697          	auipc	a3,0x2
    5166:	ba268693          	addi	a3,a3,-1118 # 6d04 <__sf_fake_stdout+0x34>
    516a:	4729                	li	a4,10
    516c:	a86d                	j	5226 <_printf_i+0x144>
    516e:	07000793          	li	a5,112
    5172:	16f68363          	beq	a3,a5,52d8 <_printf_i+0x1f6>
    5176:	02d7e563          	bltu	a5,a3,51a0 <_printf_i+0xbe>
    517a:	06e00793          	li	a5,110
    517e:	18f68a63          	beq	a3,a5,5312 <_printf_i+0x230>
    5182:	06f00793          	li	a5,111
    5186:	faf690e3          	bne	a3,a5,5126 <_printf_i+0x44>
    518a:	400c                	lw	a1,0(s0)
    518c:	431c                	lw	a5,0(a4)
    518e:	0805f813          	andi	a6,a1,128
    5192:	00478513          	addi	a0,a5,4
    5196:	06080863          	beqz	a6,5206 <_printf_i+0x124>
    519a:	c308                	sw	a0,0(a4)
    519c:	439c                	lw	a5,0(a5)
    519e:	a88d                	j	5210 <_printf_i+0x12e>
    51a0:	07500793          	li	a5,117
    51a4:	fef683e3          	beq	a3,a5,518a <_printf_i+0xa8>
    51a8:	07800793          	li	a5,120
    51ac:	12f68a63          	beq	a3,a5,52e0 <_printf_i+0x1fe>
    51b0:	07300793          	li	a5,115
    51b4:	f6f699e3          	bne	a3,a5,5126 <_printf_i+0x44>
    51b8:	431c                	lw	a5,0(a4)
    51ba:	41d0                	lw	a2,4(a1)
    51bc:	4581                	li	a1,0
    51be:	00478693          	addi	a3,a5,4
    51c2:	c314                	sw	a3,0(a4)
    51c4:	0007aa83          	lw	s5,0(a5)
    51c8:	8556                	mv	a0,s5
    51ca:	d8ffe0ef          	jal	ra,3f58 <memchr>
    51ce:	c501                	beqz	a0,51d6 <_printf_i+0xf4>
    51d0:	41550533          	sub	a0,a0,s5
    51d4:	c048                	sw	a0,4(s0)
    51d6:	405c                	lw	a5,4(s0)
    51d8:	c81c                	sw	a5,16(s0)
    51da:	040401a3          	sb	zero,67(s0)
    51de:	a861                	j	5276 <_printf_i+0x194>
    51e0:	431c                	lw	a5,0(a4)
    51e2:	04240a93          	addi	s5,s0,66
    51e6:	00478693          	addi	a3,a5,4
    51ea:	439c                	lw	a5,0(a5)
    51ec:	c314                	sw	a3,0(a4)
    51ee:	04f40123          	sb	a5,66(s0)
    51f2:	4785                	li	a5,1
    51f4:	b7d5                	j	51d8 <_printf_i+0xf6>
    51f6:	0407f693          	andi	a3,a5,64
    51fa:	411c                	lw	a5,0(a0)
    51fc:	c30c                	sw	a1,0(a4)
    51fe:	dab1                	beqz	a3,5152 <_printf_i+0x70>
    5200:	07c2                	slli	a5,a5,0x10
    5202:	87c1                	srai	a5,a5,0x10
    5204:	b7b9                	j	5152 <_printf_i+0x70>
    5206:	0405f593          	andi	a1,a1,64
    520a:	c308                	sw	a0,0(a4)
    520c:	d9c1                	beqz	a1,519c <_printf_i+0xba>
    520e:	239e                	lhu	a5,0(a5)
    5210:	06f00713          	li	a4,111
    5214:	0ee68763          	beq	a3,a4,5302 <_printf_i+0x220>
    5218:	00002697          	auipc	a3,0x2
    521c:	aec68693          	addi	a3,a3,-1300 # 6d04 <__sf_fake_stdout+0x34>
    5220:	4729                	li	a4,10
    5222:	040401a3          	sb	zero,67(s0)
    5226:	404c                	lw	a1,4(s0)
    5228:	c40c                	sw	a1,8(s0)
    522a:	0005c563          	bltz	a1,5234 <_printf_i+0x152>
    522e:	4008                	lw	a0,0(s0)
    5230:	996d                	andi	a0,a0,-5
    5232:	c008                	sw	a0,0(s0)
    5234:	e399                	bnez	a5,523a <_printf_i+0x158>
    5236:	8ab2                	mv	s5,a2
    5238:	cd89                	beqz	a1,5252 <_printf_i+0x170>
    523a:	8ab2                	mv	s5,a2
    523c:	02e7f5b3          	remu	a1,a5,a4
    5240:	1afd                	addi	s5,s5,-1
    5242:	95b6                	add	a1,a1,a3
    5244:	218c                	lbu	a1,0(a1)
    5246:	00ba8023          	sb	a1,0(s5)
    524a:	02e7d5b3          	divu	a1,a5,a4
    524e:	0ce7f063          	bgeu	a5,a4,530e <_printf_i+0x22c>
    5252:	47a1                	li	a5,8
    5254:	00f71e63          	bne	a4,a5,5270 <_printf_i+0x18e>
    5258:	401c                	lw	a5,0(s0)
    525a:	8b85                	andi	a5,a5,1
    525c:	cb91                	beqz	a5,5270 <_printf_i+0x18e>
    525e:	4058                	lw	a4,4(s0)
    5260:	481c                	lw	a5,16(s0)
    5262:	00e7c763          	blt	a5,a4,5270 <_printf_i+0x18e>
    5266:	03000793          	li	a5,48
    526a:	fefa8fa3          	sb	a5,-1(s5)
    526e:	1afd                	addi	s5,s5,-1
    5270:	41560633          	sub	a2,a2,s5
    5274:	c810                	sw	a2,16(s0)
    5276:	874e                	mv	a4,s3
    5278:	86ca                	mv	a3,s2
    527a:	0070                	addi	a2,sp,12
    527c:	85a2                	mv	a1,s0
    527e:	8526                	mv	a0,s1
    5280:	d57ff0ef          	jal	ra,4fd6 <_printf_common>
    5284:	5a7d                	li	s4,-1
    5286:	0b451d63          	bne	a0,s4,5340 <_printf_i+0x25e>
    528a:	557d                	li	a0,-1
    528c:	50b2                	lw	ra,44(sp)
    528e:	5422                	lw	s0,40(sp)
    5290:	5492                	lw	s1,36(sp)
    5292:	5902                	lw	s2,32(sp)
    5294:	49f2                	lw	s3,28(sp)
    5296:	4a62                	lw	s4,24(sp)
    5298:	4ad2                	lw	s5,20(sp)
    529a:	4b42                	lw	s6,16(sp)
    529c:	6145                	addi	sp,sp,48
    529e:	8082                	ret
    52a0:	04d582a3          	sb	a3,69(a1)
    52a4:	00002697          	auipc	a3,0x2
    52a8:	a6068693          	addi	a3,a3,-1440 # 6d04 <__sf_fake_stdout+0x34>
    52ac:	400c                	lw	a1,0(s0)
    52ae:	4308                	lw	a0,0(a4)
    52b0:	0805f813          	andi	a6,a1,128
    52b4:	411c                	lw	a5,0(a0)
    52b6:	0511                	addi	a0,a0,4
    52b8:	02080d63          	beqz	a6,52f2 <_printf_i+0x210>
    52bc:	c308                	sw	a0,0(a4)
    52be:	0015f713          	andi	a4,a1,1
    52c2:	c701                	beqz	a4,52ca <_printf_i+0x1e8>
    52c4:	0205e593          	ori	a1,a1,32
    52c8:	c00c                	sw	a1,0(s0)
    52ca:	4741                	li	a4,16
    52cc:	fbb9                	bnez	a5,5222 <_printf_i+0x140>
    52ce:	400c                	lw	a1,0(s0)
    52d0:	fdf5f593          	andi	a1,a1,-33
    52d4:	c00c                	sw	a1,0(s0)
    52d6:	b7b1                	j	5222 <_printf_i+0x140>
    52d8:	419c                	lw	a5,0(a1)
    52da:	0207e793          	ori	a5,a5,32
    52de:	c19c                	sw	a5,0(a1)
    52e0:	07800793          	li	a5,120
    52e4:	04f402a3          	sb	a5,69(s0)
    52e8:	00002697          	auipc	a3,0x2
    52ec:	a3068693          	addi	a3,a3,-1488 # 6d18 <__sf_fake_stdout+0x48>
    52f0:	bf75                	j	52ac <_printf_i+0x1ca>
    52f2:	0405f813          	andi	a6,a1,64
    52f6:	c308                	sw	a0,0(a4)
    52f8:	fc0803e3          	beqz	a6,52be <_printf_i+0x1dc>
    52fc:	07c2                	slli	a5,a5,0x10
    52fe:	83c1                	srli	a5,a5,0x10
    5300:	bf7d                	j	52be <_printf_i+0x1dc>
    5302:	00002697          	auipc	a3,0x2
    5306:	a0268693          	addi	a3,a3,-1534 # 6d04 <__sf_fake_stdout+0x34>
    530a:	4721                	li	a4,8
    530c:	bf19                	j	5222 <_printf_i+0x140>
    530e:	87ae                	mv	a5,a1
    5310:	b735                	j	523c <_printf_i+0x15a>
    5312:	4194                	lw	a3,0(a1)
    5314:	431c                	lw	a5,0(a4)
    5316:	49cc                	lw	a1,20(a1)
    5318:	0806f813          	andi	a6,a3,128
    531c:	00478513          	addi	a0,a5,4
    5320:	00080663          	beqz	a6,532c <_printf_i+0x24a>
    5324:	c308                	sw	a0,0(a4)
    5326:	439c                	lw	a5,0(a5)
    5328:	c38c                	sw	a1,0(a5)
    532a:	a039                	j	5338 <_printf_i+0x256>
    532c:	c308                	sw	a0,0(a4)
    532e:	0406f693          	andi	a3,a3,64
    5332:	439c                	lw	a5,0(a5)
    5334:	daf5                	beqz	a3,5328 <_printf_i+0x246>
    5336:	a38e                	sh	a1,0(a5)
    5338:	00042823          	sw	zero,16(s0)
    533c:	8ab2                	mv	s5,a2
    533e:	bf25                	j	5276 <_printf_i+0x194>
    5340:	4814                	lw	a3,16(s0)
    5342:	8656                	mv	a2,s5
    5344:	85ca                	mv	a1,s2
    5346:	8526                	mv	a0,s1
    5348:	9982                	jalr	s3
    534a:	f54500e3          	beq	a0,s4,528a <_printf_i+0x1a8>
    534e:	401c                	lw	a5,0(s0)
    5350:	8b89                	andi	a5,a5,2
    5352:	e78d                	bnez	a5,537c <_printf_i+0x29a>
    5354:	47b2                	lw	a5,12(sp)
    5356:	4448                	lw	a0,12(s0)
    5358:	f2f55ae3          	bge	a0,a5,528c <_printf_i+0x1aa>
    535c:	853e                	mv	a0,a5
    535e:	b73d                	j	528c <_printf_i+0x1aa>
    5360:	4685                	li	a3,1
    5362:	8656                	mv	a2,s5
    5364:	85ca                	mv	a1,s2
    5366:	8526                	mv	a0,s1
    5368:	9982                	jalr	s3
    536a:	f36500e3          	beq	a0,s6,528a <_printf_i+0x1a8>
    536e:	0a05                	addi	s4,s4,1
    5370:	445c                	lw	a5,12(s0)
    5372:	4732                	lw	a4,12(sp)
    5374:	8f99                	sub	a5,a5,a4
    5376:	fefa45e3          	blt	s4,a5,5360 <_printf_i+0x27e>
    537a:	bfe9                	j	5354 <_printf_i+0x272>
    537c:	4a01                	li	s4,0
    537e:	01940a93          	addi	s5,s0,25
    5382:	5b7d                	li	s6,-1
    5384:	b7f5                	j	5370 <_printf_i+0x28e>

00005386 <_sbrk_r>:
    5386:	1141                	addi	sp,sp,-16
    5388:	c422                	sw	s0,8(sp)
    538a:	842a                	mv	s0,a0
    538c:	852e                	mv	a0,a1
    538e:	1fffc797          	auipc	a5,0x1fffc
    5392:	5007ab23          	sw	zero,1302(a5) # 200018a4 <errno>
    5396:	c606                	sw	ra,12(sp)
    5398:	b97fe0ef          	jal	ra,3f2e <_sbrk>
    539c:	57fd                	li	a5,-1
    539e:	00f51963          	bne	a0,a5,53b0 <_sbrk_r+0x2a>
    53a2:	1fffc797          	auipc	a5,0x1fffc
    53a6:	50278793          	addi	a5,a5,1282 # 200018a4 <errno>
    53aa:	439c                	lw	a5,0(a5)
    53ac:	c391                	beqz	a5,53b0 <_sbrk_r+0x2a>
    53ae:	c01c                	sw	a5,0(s0)
    53b0:	40b2                	lw	ra,12(sp)
    53b2:	4422                	lw	s0,8(sp)
    53b4:	0141                	addi	sp,sp,16
    53b6:	8082                	ret

000053b8 <__sread>:
    53b8:	1141                	addi	sp,sp,-16
    53ba:	c422                	sw	s0,8(sp)
    53bc:	842e                	mv	s0,a1
    53be:	00e59583          	lh	a1,14(a1)
    53c2:	c606                	sw	ra,12(sp)
    53c4:	2c35                	jal	5600 <_read_r>
    53c6:	00054963          	bltz	a0,53d8 <__sread+0x20>
    53ca:	487c                	lw	a5,84(s0)
    53cc:	97aa                	add	a5,a5,a0
    53ce:	c87c                	sw	a5,84(s0)
    53d0:	40b2                	lw	ra,12(sp)
    53d2:	4422                	lw	s0,8(sp)
    53d4:	0141                	addi	sp,sp,16
    53d6:	8082                	ret
    53d8:	245e                	lhu	a5,12(s0)
    53da:	777d                	lui	a4,0xfffff
    53dc:	177d                	addi	a4,a4,-1
    53de:	8ff9                	and	a5,a5,a4
    53e0:	a45e                	sh	a5,12(s0)
    53e2:	b7fd                	j	53d0 <__sread+0x18>

000053e4 <__swrite>:
    53e4:	25de                	lhu	a5,12(a1)
    53e6:	1101                	addi	sp,sp,-32
    53e8:	cc22                	sw	s0,24(sp)
    53ea:	ca26                	sw	s1,20(sp)
    53ec:	c84a                	sw	s2,16(sp)
    53ee:	c64e                	sw	s3,12(sp)
    53f0:	ce06                	sw	ra,28(sp)
    53f2:	1007f793          	andi	a5,a5,256
    53f6:	84aa                	mv	s1,a0
    53f8:	842e                	mv	s0,a1
    53fa:	8932                	mv	s2,a2
    53fc:	89b6                	mv	s3,a3
    53fe:	c791                	beqz	a5,540a <__swrite+0x26>
    5400:	00e59583          	lh	a1,14(a1)
    5404:	4689                	li	a3,2
    5406:	4601                	li	a2,0
    5408:	220d                	jal	552a <_lseek_r>
    540a:	245e                	lhu	a5,12(s0)
    540c:	777d                	lui	a4,0xfffff
    540e:	177d                	addi	a4,a4,-1
    5410:	8ff9                	and	a5,a5,a4
    5412:	a45e                	sh	a5,12(s0)
    5414:	00e41583          	lh	a1,14(s0)
    5418:	4462                	lw	s0,24(sp)
    541a:	40f2                	lw	ra,28(sp)
    541c:	86ce                	mv	a3,s3
    541e:	864a                	mv	a2,s2
    5420:	49b2                	lw	s3,12(sp)
    5422:	4942                	lw	s2,16(sp)
    5424:	8526                	mv	a0,s1
    5426:	44d2                	lw	s1,20(sp)
    5428:	6105                	addi	sp,sp,32
    542a:	a825                	j	5462 <_write_r>

0000542c <__sseek>:
    542c:	1141                	addi	sp,sp,-16
    542e:	c422                	sw	s0,8(sp)
    5430:	842e                	mv	s0,a1
    5432:	00e59583          	lh	a1,14(a1)
    5436:	c606                	sw	ra,12(sp)
    5438:	28cd                	jal	552a <_lseek_r>
    543a:	57fd                	li	a5,-1
    543c:	245a                	lhu	a4,12(s0)
    543e:	00f51a63          	bne	a0,a5,5452 <__sseek+0x26>
    5442:	77fd                	lui	a5,0xfffff
    5444:	17fd                	addi	a5,a5,-1
    5446:	8ff9                	and	a5,a5,a4
    5448:	a45e                	sh	a5,12(s0)
    544a:	40b2                	lw	ra,12(sp)
    544c:	4422                	lw	s0,8(sp)
    544e:	0141                	addi	sp,sp,16
    5450:	8082                	ret
    5452:	6785                	lui	a5,0x1
    5454:	8fd9                	or	a5,a5,a4
    5456:	a45e                	sh	a5,12(s0)
    5458:	c868                	sw	a0,84(s0)
    545a:	bfc5                	j	544a <__sseek+0x1e>

0000545c <__sclose>:
    545c:	00e59583          	lh	a1,14(a1)
    5460:	a825                	j	5498 <_close_r>

00005462 <_write_r>:
    5462:	1141                	addi	sp,sp,-16
    5464:	c422                	sw	s0,8(sp)
    5466:	842a                	mv	s0,a0
    5468:	852e                	mv	a0,a1
    546a:	85b2                	mv	a1,a2
    546c:	8636                	mv	a2,a3
    546e:	1fffc797          	auipc	a5,0x1fffc
    5472:	4207ab23          	sw	zero,1078(a5) # 200018a4 <errno>
    5476:	c606                	sw	ra,12(sp)
    5478:	a79fe0ef          	jal	ra,3ef0 <_write>
    547c:	57fd                	li	a5,-1
    547e:	00f51963          	bne	a0,a5,5490 <_write_r+0x2e>
    5482:	1fffc797          	auipc	a5,0x1fffc
    5486:	42278793          	addi	a5,a5,1058 # 200018a4 <errno>
    548a:	439c                	lw	a5,0(a5)
    548c:	c391                	beqz	a5,5490 <_write_r+0x2e>
    548e:	c01c                	sw	a5,0(s0)
    5490:	40b2                	lw	ra,12(sp)
    5492:	4422                	lw	s0,8(sp)
    5494:	0141                	addi	sp,sp,16
    5496:	8082                	ret

00005498 <_close_r>:
    5498:	1141                	addi	sp,sp,-16
    549a:	c422                	sw	s0,8(sp)
    549c:	842a                	mv	s0,a0
    549e:	852e                	mv	a0,a1
    54a0:	1fffc797          	auipc	a5,0x1fffc
    54a4:	4007a223          	sw	zero,1028(a5) # 200018a4 <errno>
    54a8:	c606                	sw	ra,12(sp)
    54aa:	2a79                	jal	5648 <_close>
    54ac:	57fd                	li	a5,-1
    54ae:	00f51963          	bne	a0,a5,54c0 <_close_r+0x28>
    54b2:	1fffc797          	auipc	a5,0x1fffc
    54b6:	3f278793          	addi	a5,a5,1010 # 200018a4 <errno>
    54ba:	439c                	lw	a5,0(a5)
    54bc:	c391                	beqz	a5,54c0 <_close_r+0x28>
    54be:	c01c                	sw	a5,0(s0)
    54c0:	40b2                	lw	ra,12(sp)
    54c2:	4422                	lw	s0,8(sp)
    54c4:	0141                	addi	sp,sp,16
    54c6:	8082                	ret

000054c8 <_fstat_r>:
    54c8:	1141                	addi	sp,sp,-16
    54ca:	c422                	sw	s0,8(sp)
    54cc:	842a                	mv	s0,a0
    54ce:	852e                	mv	a0,a1
    54d0:	85b2                	mv	a1,a2
    54d2:	1fffc797          	auipc	a5,0x1fffc
    54d6:	3c07a923          	sw	zero,978(a5) # 200018a4 <errno>
    54da:	c606                	sw	ra,12(sp)
    54dc:	2ab5                	jal	5658 <_fstat>
    54de:	57fd                	li	a5,-1
    54e0:	00f51963          	bne	a0,a5,54f2 <_fstat_r+0x2a>
    54e4:	1fffc797          	auipc	a5,0x1fffc
    54e8:	3c078793          	addi	a5,a5,960 # 200018a4 <errno>
    54ec:	439c                	lw	a5,0(a5)
    54ee:	c391                	beqz	a5,54f2 <_fstat_r+0x2a>
    54f0:	c01c                	sw	a5,0(s0)
    54f2:	40b2                	lw	ra,12(sp)
    54f4:	4422                	lw	s0,8(sp)
    54f6:	0141                	addi	sp,sp,16
    54f8:	8082                	ret

000054fa <_isatty_r>:
    54fa:	1141                	addi	sp,sp,-16
    54fc:	c422                	sw	s0,8(sp)
    54fe:	842a                	mv	s0,a0
    5500:	852e                	mv	a0,a1
    5502:	1fffc797          	auipc	a5,0x1fffc
    5506:	3a07a123          	sw	zero,930(a5) # 200018a4 <errno>
    550a:	c606                	sw	ra,12(sp)
    550c:	2ab1                	jal	5668 <_isatty>
    550e:	57fd                	li	a5,-1
    5510:	00f51963          	bne	a0,a5,5522 <_isatty_r+0x28>
    5514:	1fffc797          	auipc	a5,0x1fffc
    5518:	39078793          	addi	a5,a5,912 # 200018a4 <errno>
    551c:	439c                	lw	a5,0(a5)
    551e:	c391                	beqz	a5,5522 <_isatty_r+0x28>
    5520:	c01c                	sw	a5,0(s0)
    5522:	40b2                	lw	ra,12(sp)
    5524:	4422                	lw	s0,8(sp)
    5526:	0141                	addi	sp,sp,16
    5528:	8082                	ret

0000552a <_lseek_r>:
    552a:	1141                	addi	sp,sp,-16
    552c:	c422                	sw	s0,8(sp)
    552e:	842a                	mv	s0,a0
    5530:	852e                	mv	a0,a1
    5532:	85b2                	mv	a1,a2
    5534:	8636                	mv	a2,a3
    5536:	1fffc797          	auipc	a5,0x1fffc
    553a:	3607a723          	sw	zero,878(a5) # 200018a4 <errno>
    553e:	c606                	sw	ra,12(sp)
    5540:	2a25                	jal	5678 <_lseek>
    5542:	57fd                	li	a5,-1
    5544:	00f51963          	bne	a0,a5,5556 <_lseek_r+0x2c>
    5548:	1fffc797          	auipc	a5,0x1fffc
    554c:	35c78793          	addi	a5,a5,860 # 200018a4 <errno>
    5550:	439c                	lw	a5,0(a5)
    5552:	c391                	beqz	a5,5556 <_lseek_r+0x2c>
    5554:	c01c                	sw	a5,0(s0)
    5556:	40b2                	lw	ra,12(sp)
    5558:	4422                	lw	s0,8(sp)
    555a:	0141                	addi	sp,sp,16
    555c:	8082                	ret

0000555e <memmove>:
    555e:	04a5f163          	bgeu	a1,a0,55a0 <memmove+0x42>
    5562:	00c586b3          	add	a3,a1,a2
    5566:	02d57d63          	bgeu	a0,a3,55a0 <memmove+0x42>
    556a:	fff64593          	not	a1,a2
    556e:	4781                	li	a5,0
    5570:	17fd                	addi	a5,a5,-1
    5572:	00f59363          	bne	a1,a5,5578 <memmove+0x1a>
    5576:	8082                	ret
    5578:	00f68733          	add	a4,a3,a5
    557c:	00074803          	lbu	a6,0(a4) # fffff000 <_eusrstack+0xdfffa000>
    5580:	00c78733          	add	a4,a5,a2
    5584:	972a                	add	a4,a4,a0
    5586:	01070023          	sb	a6,0(a4)
    558a:	b7dd                	j	5570 <memmove+0x12>
    558c:	00f58733          	add	a4,a1,a5
    5590:	2314                	lbu	a3,0(a4)
    5592:	00f50733          	add	a4,a0,a5
    5596:	0785                	addi	a5,a5,1
    5598:	a314                	sb	a3,0(a4)
    559a:	fef619e3          	bne	a2,a5,558c <memmove+0x2e>
    559e:	8082                	ret
    55a0:	4781                	li	a5,0
    55a2:	bfe5                	j	559a <memmove+0x3c>

000055a4 <__malloc_lock>:
    55a4:	8082                	ret

000055a6 <__malloc_unlock>:
    55a6:	8082                	ret

000055a8 <_realloc_r>:
    55a8:	e581                	bnez	a1,55b0 <_realloc_r+0x8>
    55aa:	85b2                	mv	a1,a2
    55ac:	b0aff06f          	j	48b6 <_malloc_r>
    55b0:	1101                	addi	sp,sp,-32
    55b2:	cc22                	sw	s0,24(sp)
    55b4:	ce06                	sw	ra,28(sp)
    55b6:	ca26                	sw	s1,20(sp)
    55b8:	c84a                	sw	s2,16(sp)
    55ba:	c64e                	sw	s3,12(sp)
    55bc:	8432                	mv	s0,a2
    55be:	ee01                	bnez	a2,55d6 <_realloc_r+0x2e>
    55c0:	a4eff0ef          	jal	ra,480e <_free_r>
    55c4:	4901                	li	s2,0
    55c6:	40f2                	lw	ra,28(sp)
    55c8:	4462                	lw	s0,24(sp)
    55ca:	854a                	mv	a0,s2
    55cc:	44d2                	lw	s1,20(sp)
    55ce:	4942                	lw	s2,16(sp)
    55d0:	49b2                	lw	s3,12(sp)
    55d2:	6105                	addi	sp,sp,32
    55d4:	8082                	ret
    55d6:	84ae                	mv	s1,a1
    55d8:	89aa                	mv	s3,a0
    55da:	28a9                	jal	5634 <_malloc_usable_size_r>
    55dc:	8926                	mv	s2,s1
    55de:	fe8574e3          	bgeu	a0,s0,55c6 <_realloc_r+0x1e>
    55e2:	85a2                	mv	a1,s0
    55e4:	854e                	mv	a0,s3
    55e6:	ad0ff0ef          	jal	ra,48b6 <_malloc_r>
    55ea:	892a                	mv	s2,a0
    55ec:	dd69                	beqz	a0,55c6 <_realloc_r+0x1e>
    55ee:	85a6                	mv	a1,s1
    55f0:	8622                	mv	a2,s0
    55f2:	97ffe0ef          	jal	ra,3f70 <memcpy>
    55f6:	85a6                	mv	a1,s1
    55f8:	854e                	mv	a0,s3
    55fa:	a14ff0ef          	jal	ra,480e <_free_r>
    55fe:	b7e1                	j	55c6 <_realloc_r+0x1e>

00005600 <_read_r>:
    5600:	1141                	addi	sp,sp,-16
    5602:	c422                	sw	s0,8(sp)
    5604:	842a                	mv	s0,a0
    5606:	852e                	mv	a0,a1
    5608:	85b2                	mv	a1,a2
    560a:	8636                	mv	a2,a3
    560c:	1fffc797          	auipc	a5,0x1fffc
    5610:	2807ac23          	sw	zero,664(a5) # 200018a4 <errno>
    5614:	c606                	sw	ra,12(sp)
    5616:	288d                	jal	5688 <_read>
    5618:	57fd                	li	a5,-1
    561a:	00f51963          	bne	a0,a5,562c <_read_r+0x2c>
    561e:	1fffc797          	auipc	a5,0x1fffc
    5622:	28678793          	addi	a5,a5,646 # 200018a4 <errno>
    5626:	439c                	lw	a5,0(a5)
    5628:	c391                	beqz	a5,562c <_read_r+0x2c>
    562a:	c01c                	sw	a5,0(s0)
    562c:	40b2                	lw	ra,12(sp)
    562e:	4422                	lw	s0,8(sp)
    5630:	0141                	addi	sp,sp,16
    5632:	8082                	ret

00005634 <_malloc_usable_size_r>:
    5634:	ffc5a783          	lw	a5,-4(a1)
    5638:	ffc78513          	addi	a0,a5,-4
    563c:	0007d563          	bgez	a5,5646 <_malloc_usable_size_r+0x12>
    5640:	95aa                	add	a1,a1,a0
    5642:	419c                	lw	a5,0(a1)
    5644:	953e                	add	a0,a0,a5
    5646:	8082                	ret

00005648 <_close>:
    5648:	05800793          	li	a5,88
    564c:	1fffc717          	auipc	a4,0x1fffc
    5650:	24f72c23          	sw	a5,600(a4) # 200018a4 <errno>
    5654:	557d                	li	a0,-1
    5656:	8082                	ret

00005658 <_fstat>:
    5658:	05800793          	li	a5,88
    565c:	1fffc717          	auipc	a4,0x1fffc
    5660:	24f72423          	sw	a5,584(a4) # 200018a4 <errno>
    5664:	557d                	li	a0,-1
    5666:	8082                	ret

00005668 <_isatty>:
    5668:	05800793          	li	a5,88
    566c:	1fffc717          	auipc	a4,0x1fffc
    5670:	22f72c23          	sw	a5,568(a4) # 200018a4 <errno>
    5674:	4501                	li	a0,0
    5676:	8082                	ret

00005678 <_lseek>:
    5678:	05800793          	li	a5,88
    567c:	1fffc717          	auipc	a4,0x1fffc
    5680:	22f72423          	sw	a5,552(a4) # 200018a4 <errno>
    5684:	557d                	li	a0,-1
    5686:	8082                	ret

00005688 <_read>:
    5688:	05800793          	li	a5,88
    568c:	1fffc717          	auipc	a4,0x1fffc
    5690:	20f72c23          	sw	a5,536(a4) # 200018a4 <errno>
    5694:	557d                	li	a0,-1
    5696:	8082                	ret

00005698 <Font11x18>:
	...
    56bc:	0000 0c00 0c00 0c00 0c00 0c00 0c00 0c00     ................
    56cc:	0c00 0c00 0c00 0c00 0000 0c00 0c00 0000     ................
    56dc:	0000 0000 0000 1b00 1b00 1b00 1b00 1b00     ................
	...
    5704:	0000 1980 1980 1980 1980 7fc0 7fc0 1980     ................
    5714:	3300 7fc0 7fc0 3300 3300 3300 3300 0000     .3.....3.3.3.3..
    5724:	0000 0000 0000 1e00 3f00 7580 6580 7400     .........?.u.e.t
    5734:	3c00 1e00 0700 0580 6580 6580 7580 3f00     .<.......e.e.u.?
    5744:	1e00 0400 0400 0000 0000 7000 d800 d840     ...........p..@.
    5754:	d8c0 d980 7300 0600 0c00 1b80 36c0 66c0     .....s.......6.f
    5764:	46c0 06c0 0380 0000 0000 0000 0000 1e00     .F..............
    5774:	3f00 3300 3300 3300 1e00 0c00 3cc0 66c0     .?.3.3.3.....<.f
    5784:	6380 6180 6380 3ec0 1c80 0000 0000 0000     .c.a.c.>........
    5794:	0000 0c00 0c00 0c00 0c00 0c00 0000 0000     ................
	...
    57b8:	0080 0100 0300 0600 0600 0400 0c00 0c00     ................
    57c8:	0c00 0c00 0c00 0c00 0400 0600 0600 0300     ................
    57d8:	0100 0080 2000 1000 1800 0c00 0c00 0400     ..... ..........
    57e8:	0600 0600 0600 0600 0600 0600 0400 0c00     ................
    57f8:	0c00 1800 1000 2000 0000 0c00 2d00 3f00     ....... .....-.?
    5808:	1e00 3300 0000 0000 0000 0000 0000 0000     ...3............
	...
    5828:	0000 0c00 0c00 0c00 0c00 ffc0 ffc0 0c00     ................
    5838:	0c00 0c00 0c00 0000 0000 0000 0000 0000     ................
	...
    5860:	0000 0c00 0c00 0400 0400 0800 0000 0000     ................
	...
    587c:	0000 1e00 1e00 0000 0000 0000 0000 0000     ................
	...
    58a8:	0000 0c00 0c00 0000 0000 0000 0000 0300     ................
    58b8:	0300 0300 0600 0600 0600 0600 0c00 0c00     ................
    58c8:	0c00 0c00 1800 1800 1800 0000 0000 0000     ................
    58d8:	0000 1e00 3f00 3300 6180 6180 6180 6d80     .....?.3.a.a.a.m
    58e8:	6d80 6180 6180 6180 3300 3f00 1e00 0000     .m.a.a.a.3.?....
    58f8:	0000 0000 0000 0600 0e00 1e00 3600 2600     .............6.&
    5908:	0600 0600 0600 0600 0600 0600 0600 0600     ................
    5918:	0600 0000 0000 0000 0000 1e00 3f00 7380     .............?.s
    5928:	6180 6180 0180 0300 0600 0c00 1800 3000     .a.a...........0
    5938:	6000 7f80 7f80 0000 0000 0000 0000 1c00     .`..............
    5948:	3e00 6300 6300 0300 0e00 0e00 0300 0180     .>.c.c..........
    5958:	0180 6180 7380 3f00 1e00 0000 0000 0000     ...a.s.?........
    5968:	0000 0600 0e00 0e00 1e00 1e00 1600 3600     ...............6
    5978:	3600 6600 7f80 7f80 0600 0600 0600 0000     .6.f............
    5988:	0000 0000 0000 7f00 7f00 6000 6000 6000     ...........`.`.`
    5998:	6e00 7f00 6380 0180 0180 6180 7380 3f00     .n...c.....a.s.?
    59a8:	1e00 0000 0000 0000 0000 1e00 3f00 3380     .............?.3
    59b8:	6180 6000 6e00 7f00 7380 6180 6180 6180     .a.`.n...s.a.a.a
    59c8:	3380 3f00 1e00 0000 0000 0000 0000 7f80     .3.?............
    59d8:	7f80 0180 0300 0300 0600 0600 0c00 0c00     ................
    59e8:	0c00 0800 1800 1800 1800 0000 0000 0000     ................
    59f8:	0000 1e00 3f00 6380 6180 6180 2100 1e00     .....?.c.a.a.!..
    5a08:	3f00 6180 6180 6180 6180 3f00 1e00 0000     .?.a.a.a.a.?....
    5a18:	0000 0000 0000 1e00 3f00 7300 6180 6180     .........?.s.a.a
    5a28:	6180 7380 3f80 1d80 0180 6180 7300 3f00     .a.s.?.....a.s.?
    5a38:	1e00 0000 0000 0000 0000 0000 0000 0000     ................
    5a48:	0000 0c00 0c00 0000 0000 0000 0000 0000     ................
    5a58:	0000 0c00 0c00 0000 0000 0000 0000 0000     ................
	...
    5a70:	0c00 0c00 0000 0000 0000 0000 0000 0c00     ................
    5a80:	0c00 0400 0400 0800 0000 0000 0000 0000     ................
    5a90:	0080 0380 0e00 3800 6000 3800 0e00 0380     .......8.`.8....
    5aa0:	0080 0000 0000 0000 0000 0000 0000 0000     ................
    5ab0:	0000 0000 0000 7f80 7f80 0000 0000 7f80     ................
    5ac0:	7f80 0000 0000 0000 0000 0000 0000 0000     ................
	...
    5ad8:	4000 7000 1c00 0700 0180 0700 1c00 7000     .@.p...........p
    5ae8:	4000 0000 0000 0000 0000 0000 0000 1f00     .@..............
    5af8:	3f80 71c0 60c0 00c0 01c0 0380 0700 0e00     .?.q.`..........
    5b08:	0c00 0c00 0000 0c00 0c00 0000 0000 0000     ................
    5b18:	0000 1e00 3f00 3180 7180 6380 6f80 6d80     .....?.1.q.c.o.m
    5b28:	6d80 6f80 6780 6000 3200 3e00 1c00 0000     .m.o.g.`.2.>....
    5b38:	0000 0000 0000 0e00 0e00 1b00 1b00 1b00     ................
    5b48:	1b00 3180 3180 3f80 3f80 3180 60c0 60c0     ...1.1.?.?.1.`.`
    5b58:	60c0 0000 0000 0000 0000 7c00 7e00 6300     .`.........|.~.c
    5b68:	6300 6300 6300 7e00 7e00 6300 6180 6180     .c.c.c.~.~.c.a.a
    5b78:	6380 7f00 7e00 0000 0000 0000 0000 1e00     .c...~..........
    5b88:	3f00 3180 6180 6000 6000 6000 6000 6000     .?.1.a.`.`.`.`.`
    5b98:	6000 6180 3180 3f00 1e00 0000 0000 0000     .`.a.1.?........
    5ba8:	0000 7c00 7f00 6300 6380 6180 6180 6180     ...|...c.c.a.a.a
    5bb8:	6180 6180 6180 6300 6300 7e00 7c00 0000     .a.a.a.c.c.~.|..
    5bc8:	0000 0000 0000 7f80 7f80 6000 6000 6000     ...........`.`.`
    5bd8:	6000 7f00 7f00 6000 6000 6000 6000 7f80     .`.....`.`.`.`..
    5be8:	7f80 0000 0000 0000 0000 7f80 7f80 6000     ...............`
    5bf8:	6000 6000 6000 7f00 7f00 6000 6000 6000     .`.`.`.....`.`.`
    5c08:	6000 6000 6000 0000 0000 0000 0000 1e00     .`.`.`..........
    5c18:	3f00 3180 6180 6000 6000 6000 6380 6380     .?.1.a.`.`.`.c.c
    5c28:	6180 6180 3180 3f80 1e00 0000 0000 0000     .a.a.1.?........
    5c38:	0000 6180 6180 6180 6180 6180 6180 7f80     ...a.a.a.a.a.a..
    5c48:	7f80 6180 6180 6180 6180 6180 6180 0000     ...a.a.a.a.a.a..
    5c58:	0000 0000 0000 3f00 3f00 0c00 0c00 0c00     .......?.?......
    5c68:	0c00 0c00 0c00 0c00 0c00 0c00 0c00 3f00     ...............?
    5c78:	3f00 0000 0000 0000 0000 0180 0180 0180     .?..............
    5c88:	0180 0180 0180 0180 0180 0180 6180 6180     .............a.a
    5c98:	7380 3f00 1e00 0000 0000 0000 0000 60c0     .s.?...........`
    5ca8:	6180 6300 6600 6600 6c00 7800 7c00 6600     .a.c.f.f.l.x.|.f
    5cb8:	6600 6300 6180 6180 60c0 0000 0000 0000     .f.c.a.a.`......
    5cc8:	0000 6000 6000 6000 6000 6000 6000 6000     ...`.`.`.`.`.`.`
    5cd8:	6000 6000 6000 6000 6000 7f80 7f80 0000     .`.`.`.`.`......
    5ce8:	0000 0000 0000 71c0 71c0 7bc0 7ac0 6ac0     .......q.q.{.z.j
    5cf8:	6ac0 6ec0 64c0 60c0 60c0 60c0 60c0 60c0     .j.n.d.`.`.`.`.`
    5d08:	60c0 0000 0000 0000 0000 7180 7180 7980     .`.........q.q.y
    5d18:	7980 7980 6d80 6d80 6d80 6580 6780 6780     .y.y.m.m.m.e.g.g
    5d28:	6780 6380 6380 0000 0000 0000 0000 1e00     .g.c.c..........
    5d38:	3f00 3300 6180 6180 6180 6180 6180 6180     .?.3.a.a.a.a.a.a
    5d48:	6180 6180 3300 3f00 1e00 0000 0000 0000     .a.a.3.?........
    5d58:	0000 7e00 7f00 6380 6180 6180 6180 6380     ...~...c.a.a.a.c
    5d68:	7f00 7e00 6000 6000 6000 6000 6000 0000     ...~.`.`.`.`.`..
    5d78:	0000 0000 0000 1e00 3f00 3300 6180 6180     .........?.3.a.a
    5d88:	6180 6180 6180 6180 6580 6780 3300 3f80     .a.a.a.a.e.g.3.?
    5d98:	1e40 0000 0000 0000 0000 7e00 7f00 6380     @..........~...c
    5da8:	6180 6180 6380 7f00 7e00 6600 6300 6300     .a.a.c...~.f.c.c
    5db8:	6180 6180 60c0 0000 0000 0000 0000 0e00     .a.a.`..........
    5dc8:	1f00 3180 3180 3000 3800 1e00 0700 0380     ...1.1.0.8......
    5dd8:	6180 6180 3180 3f00 1e00 0000 0000 0000     .a.a.1.?........
    5de8:	0000 ffc0 ffc0 0c00 0c00 0c00 0c00 0c00     ................
    5df8:	0c00 0c00 0c00 0c00 0c00 0c00 0c00 0000     ................
    5e08:	0000 0000 0000 6180 6180 6180 6180 6180     .......a.a.a.a.a
    5e18:	6180 6180 6180 6180 6180 6180 7380 3f00     .a.a.a.a.a.a.s.?
    5e28:	1e00 0000 0000 0000 0000 60c0 60c0 60c0     ...........`.`.`
    5e38:	3180 3180 3180 1b00 1b00 1b00 1b00 0e00     .1.1.1..........
    5e48:	0e00 0e00 0400 0000 0000 0000 0000 c0c0     ................
    5e58:	c0c0 c0c0 c0c0 c0c0 ccc0 4c80 4c80 5e80     ...........L.L.^
    5e68:	5280 5280 7380 6180 6180 0000 0000 0000     .R.R.s.a.a......
    5e78:	0000 c0c0 6080 6180 3300 3b00 1e00 0c00     .....`.a.3.;....
    5e88:	0c00 1e00 1f00 3b00 7180 6180 c0c0 0000     .......;.q.a....
    5e98:	0000 0000 0000 c0c0 6180 6180 3300 3300     .........a.a.3.3
    5ea8:	1e00 1e00 0c00 0c00 0c00 0c00 0c00 0c00     ................
    5eb8:	0c00 0000 0000 0000 0000 3f80 3f80 0180     ...........?.?..
    5ec8:	0300 0300 0600 0c00 0c00 1800 1800 3000     ...............0
    5ed8:	6000 7f80 7f80 0000 0000 0000 0f00 0f00     .`..............
    5ee8:	0c00 0c00 0c00 0c00 0c00 0c00 0c00 0c00     ................
    5ef8:	0c00 0c00 0c00 0c00 0c00 0c00 0f00 0f00     ................
    5f08:	0000 1800 1800 1800 0c00 0c00 0c00 0c00     ................
    5f18:	0600 0600 0600 0600 0300 0300 0300 0000     ................
    5f28:	0000 0000 1e00 1e00 0600 0600 0600 0600     ................
    5f38:	0600 0600 0600 0600 0600 0600 0600 0600     ................
    5f48:	0600 0600 1e00 1e00 0000 0c00 0c00 1e00     ................
    5f58:	1200 3300 3300 6180 6180 0000 0000 0000     ...3.3.a.a......
	...
    5f94:	ffe0 0000 0000 3800 1800 0c00 0000 0000     .......8........
	...
    5fc4:	0000 1f00 3f80 6180 0180 1f80 3f80 6180     .....?.a.....?.a
    5fd4:	6380 7f80 38c0 0000 0000 0000 0000 6000     .c...8.........`
    5fe4:	6000 6000 6000 6e00 7f00 7380 6180 6180     .`.`.`.n...s.a.a
    5ff4:	6180 6180 7380 7f00 6e00 0000 0000 0000     .a.a.s...n......
	...
    600c:	0000 1e00 3f00 7380 6180 6000 6000 6180     .....?.s.a.`.`.a
    601c:	7380 3f00 1e00 0000 0000 0000 0000 0180     .s.?............
    602c:	0180 0180 0180 1d80 3f80 7380 6180 6180     .........?.s.a.a
    603c:	6180 6180 7380 3f80 1d80 0000 0000 0000     .a.a.s.?........
	...
    6054:	0000 1e00 3f00 7300 6180 7f80 7f80 6000     .....?.s.a.....`
    6064:	7180 3f00 1e00 0000 0000 0000 0000 07c0     .q.?............
    6074:	0fc0 0c00 0c00 7f80 7f80 0c00 0c00 0c00     ................
    6084:	0c00 0c00 0c00 0c00 0c00 0000 0000 0000     ................
	...
    609c:	1d80 3f80 7380 6180 6180 6180 6180 7380     ...?.s.a.a.a.a.s
    60ac:	3f80 1d80 0180 6380 7f00 3e00 0000 6000     .?.....c...>...`
    60bc:	6000 6000 6000 6f00 7f80 7180 6180 6180     .`.`.`.o...q.a.a
    60cc:	6180 6180 6180 6180 6180 0000 0000 0000     .a.a.a.a.a......
    60dc:	0000 0600 0600 0000 0000 3e00 3e00 0600     ...........>.>..
    60ec:	0600 0600 0600 0600 0600 0600 0600 0000     ................
    60fc:	0000 0000 0600 0600 0000 0000 3e00 3e00     .............>.>
    610c:	0600 0600 0600 0600 0600 0600 0600 0600     ................
    611c:	0600 4600 7e00 3c00 0000 6000 6000 6000     ...F.~.<...`.`.`
    612c:	6000 6180 6300 6600 6c00 7c00 7600 6300     .`.a.c.f.l.|.v.c
    613c:	6300 6180 60c0 0000 0000 0000 0000 3e00     .c.a.`.........>
    614c:	3e00 0600 0600 0600 0600 0600 0600 0600     .>..............
    615c:	0600 0600 0600 0600 0600 0000 0000 0000     ................
	...
    6174:	0000 dd80 ffc0 cec0 ccc0 ccc0 ccc0 ccc0     ................
    6184:	ccc0 ccc0 ccc0 0000 0000 0000 0000 0000     ................
    6194:	0000 0000 0000 6f00 7f80 7180 6180 6180     .......o...q.a.a
    61a4:	6180 6180 6180 6180 6180 0000 0000 0000     .a.a.a.a.a......
	...
    61bc:	0000 1e00 3f00 7380 6180 6180 6180 6180     .....?.s.a.a.a.a
    61cc:	7380 3f00 1e00 0000 0000 0000 0000 0000     .s.?............
    61dc:	0000 0000 6e00 7f00 7380 6180 6180 6180     .....n...s.a.a.a
    61ec:	6180 7380 7f00 6e00 6000 6000 6000 6000     .a.s...n.`.`.`.`
	...
    6204:	1d80 3f80 7380 6180 6180 6180 6180 7380     ...?.s.a.a.a.a.s
    6214:	3f80 1d80 0180 0180 0180 0180 0000 0000     .?..............
    6224:	0000 0000 0000 6700 3f80 3900 3000 3000     .......g.?.9.0.0
    6234:	3000 3000 3000 3000 3000 0000 0000 0000     .0.0.0.0.0......
	...
    624c:	0000 1e00 3f80 6180 6000 7f00 3f80 0180     .....?.a.`...?..
    625c:	6180 7f00 1e00 0000 0000 0000 0000 0000     .a..............
    626c:	0800 1800 1800 7f00 7f00 1800 1800 1800     ................
    627c:	1800 1800 1800 1f80 0f80 0000 0000 0000     ................
	...
    6294:	0000 6180 6180 6180 6180 6180 6180 6180     ...a.a.a.a.a.a.a
    62a4:	6380 7f80 3d80 0000 0000 0000 0000 0000     .c...=..........
    62b4:	0000 0000 0000 60c0 3180 3180 3180 1b00     .......`.1.1.1..
    62c4:	1b00 1b00 0e00 0e00 0600 0000 0000 0000     ................
	...
    62dc:	0000 dd80 dd80 dd80 5500 5500 5500 7700     .........U.U.U.w
    62ec:	7700 2200 2200 0000 0000 0000 0000 0000     .w."."..........
    62fc:	0000 0000 0000 6180 3300 3300 1e00 0c00     .......a.3.3....
    630c:	0c00 1e00 3300 3300 6180 0000 0000 0000     .....3.3.a......
	...
    6324:	6180 6180 3180 3300 3300 1b00 1b00 1b00     .a.a.1.3.3......
    6334:	0e00 0e00 0e00 1c00 7c00 7000 0000 0000     .........|.p....
    6344:	0000 0000 0000 7fc0 7fc0 0180 0300 0600     ................
    6354:	0c00 1800 3000 7fc0 7fc0 0000 0000 0000     .....0..........
    6364:	0380 0780 0600 0600 0600 0600 0600 0e00     ................
    6374:	1c00 1c00 0e00 0600 0600 0600 0600 0600     ................
    6384:	0780 0380 0600 0600 0600 0600 0600 0600     ................
    6394:	0600 0600 0600 0600 0600 0600 0600 0600     ................
    63a4:	0600 0600 0600 0600 3800 3c00 0c00 0c00     .........8.<....
    63b4:	0c00 0c00 0c00 0e00 0700 0700 0e00 0c00     ................
    63c4:	0c00 0c00 0c00 0c00 3c00 3800 0000 0000     .........<.8....
	...
    63dc:	0000 3880 7f80 4700 0000 0000 0000 0000     ...8...G........
	...

000063f4 <Font7x10>:
	...
    6408:	1000 1000 1000 1000 1000 1000 0000 1000     ................
    6418:	0000 0000 2800 2800 2800 0000 0000 0000     .....(.(.(......
	...
    6430:	2400 2400 7c00 2400 4800 7c00 4800 4800     .$.$.|.$.H.|.H.H
    6440:	0000 0000 3800 5400 5000 3800 1400 5400     .....8.T.P.8...T
    6450:	5400 3800 1000 0000 2000 5400 5800 3000     .T.8..... .T.X.0
    6460:	2800 5400 1400 0800 0000 0000 1000 2800     .(.T...........(
    6470:	2800 1000 3400 4800 4800 3400 0000 0000     .(...4.H.H.4....
    6480:	1000 1000 1000 0000 0000 0000 0000 0000     ................
    6490:	0000 0000 0800 1000 2000 2000 2000 2000     ......... . . . 
    64a0:	2000 2000 1000 0800 2000 1000 0800 0800     . . ..... ......
    64b0:	0800 0800 0800 0800 1000 2000 1000 3800     ........... ...8
    64c0:	1000 2800 0000 0000 0000 0000 0000 0000     ...(............
    64d0:	0000 0000 1000 1000 7c00 1000 1000 0000     .........|......
	...
    64f0:	0000 1000 1000 1000 0000 0000 0000 0000     ................
    6500:	0000 3800 0000 0000 0000 0000 0000 0000     ...8............
	...
    6518:	0000 1000 0000 0000 0800 0800 1000 1000     ................
    6528:	1000 1000 2000 2000 0000 0000 3800 4400     ..... . .....8.D
    6538:	4400 5400 4400 4400 4400 3800 0000 0000     .D.T.D.D.D.8....
    6548:	1000 3000 5000 1000 1000 1000 1000 1000     ...0.P..........
    6558:	0000 0000 3800 4400 4400 0400 0800 1000     .....8.D.D......
    6568:	2000 7c00 0000 0000 3800 4400 0400 1800     . .|.....8.D....
    6578:	0400 0400 4400 3800 0000 0000 0800 1800     .....D.8........
    6588:	2800 2800 4800 7c00 0800 0800 0000 0000     .(.(.H.|........
    6598:	7c00 4000 4000 7800 0400 0400 4400 3800     .|.@.@.x.....D.8
    65a8:	0000 0000 3800 4400 4000 7800 4400 4400     .....8.D.@.x.D.D
    65b8:	4400 3800 0000 0000 7c00 0400 0800 1000     .D.8.....|......
    65c8:	1000 2000 2000 2000 0000 0000 3800 4400     ... . . .....8.D
    65d8:	4400 3800 4400 4400 4400 3800 0000 0000     .D.8.D.D.D.8....
    65e8:	3800 4400 4400 4400 3c00 0400 4400 3800     .8.D.D.D.<...D.8
	...
    6600:	1000 0000 0000 0000 0000 1000 0000 0000     ................
    6610:	0000 0000 0000 1000 0000 0000 0000 1000     ................
    6620:	1000 1000 0000 0000 0c00 3000 4000 3000     ...........0.@.0
    6630:	0c00 0000 0000 0000 0000 0000 0000 7c00     ...............|
    6640:	0000 7c00 0000 0000 0000 0000 0000 0000     ...|............
    6650:	6000 1800 0400 1800 6000 0000 0000 0000     .`.......`......
    6660:	3800 4400 0400 0800 1000 1000 0000 1000     .8.D............
    6670:	0000 0000 3800 4400 4c00 5400 5c00 4000     .....8.D.L.T.\.@
    6680:	4000 3800 0000 0000 1000 2800 2800 2800     .@.8.......(.(.(
    6690:	2800 7c00 4400 4400 0000 0000 7800 4400     .(.|.D.D.....x.D
    66a0:	4400 7800 4400 4400 4400 7800 0000 0000     .D.x.D.D.D.x....
    66b0:	3800 4400 4000 4000 4000 4000 4400 3800     .8.D.@.@.@.@.D.8
    66c0:	0000 0000 7000 4800 4400 4400 4400 4400     .....p.H.D.D.D.D
    66d0:	4800 7000 0000 0000 7c00 4000 4000 7c00     .H.p.....|.@.@.|
    66e0:	4000 4000 4000 7c00 0000 0000 7c00 4000     .@.@.@.|.....|.@
    66f0:	4000 7800 4000 4000 4000 4000 0000 0000     .@.x.@.@.@.@....
    6700:	3800 4400 4000 4000 5c00 4400 4400 3800     .8.D.@.@.\.D.D.8
    6710:	0000 0000 4400 4400 4400 7c00 4400 4400     .....D.D.D.|.D.D
    6720:	4400 4400 0000 0000 3800 1000 1000 1000     .D.D.....8......
    6730:	1000 1000 1000 3800 0000 0000 0400 0400     .......8........
    6740:	0400 0400 0400 0400 4400 3800 0000 0000     .........D.8....
    6750:	4400 4800 5000 6000 5000 4800 4800 4400     .D.H.P.`.P.H.H.D
    6760:	0000 0000 4000 4000 4000 4000 4000 4000     .....@.@.@.@.@.@
    6770:	4000 7c00 0000 0000 4400 6c00 6c00 5400     .@.|.....D.l.l.T
    6780:	4400 4400 4400 4400 0000 0000 4400 6400     .D.D.D.D.....D.d
    6790:	6400 5400 5400 4c00 4c00 4400 0000 0000     .d.T.T.L.L.D....
    67a0:	3800 4400 4400 4400 4400 4400 4400 3800     .8.D.D.D.D.D.D.8
    67b0:	0000 0000 7800 4400 4400 4400 7800 4000     .....x.D.D.D.x.@
    67c0:	4000 4000 0000 0000 3800 4400 4400 4400     .@.@.....8.D.D.D
    67d0:	4400 4400 5400 3800 0400 0000 7800 4400     .D.D.T.8.....x.D
    67e0:	4400 4400 7800 4800 4800 4400 0000 0000     .D.D.x.H.H.D....
    67f0:	3800 4400 4000 3000 0800 0400 4400 3800     .8.D.@.0.....D.8
    6800:	0000 0000 7c00 1000 1000 1000 1000 1000     .....|..........
    6810:	1000 1000 0000 0000 4400 4400 4400 4400     .........D.D.D.D
    6820:	4400 4400 4400 3800 0000 0000 4400 4400     .D.D.D.8.....D.D
    6830:	4400 2800 2800 2800 1000 1000 0000 0000     .D.(.(.(........
    6840:	4400 4400 5400 5400 5400 6c00 2800 2800     .D.D.T.T.T.l.(.(
    6850:	0000 0000 4400 2800 2800 1000 1000 2800     .....D.(.(.....(
    6860:	2800 4400 0000 0000 4400 4400 2800 2800     .(.D.....D.D.(.(
    6870:	1000 1000 1000 1000 0000 0000 7c00 0400     .............|..
    6880:	0800 1000 1000 2000 4000 7c00 0000 0000     ....... .@.|....
    6890:	1800 1000 1000 1000 1000 1000 1000 1000     ................
    68a0:	1000 1800 2000 2000 1000 1000 1000 1000     ..... . ........
    68b0:	0800 0800 0000 0000 3000 1000 1000 1000     .........0......
    68c0:	1000 1000 1000 1000 1000 3000 1000 2800     ...........0...(
    68d0:	2800 4400 0000 0000 0000 0000 0000 0000     .(.D............
	...
    68f0:	0000 fe00 2000 1000 0000 0000 0000 0000     ..... ..........
	...
    690c:	3800 4400 3c00 4400 4c00 3400 0000 0000     .8.D.<.D.L.4....
    691c:	4000 4000 5800 6400 4400 4400 6400 5800     .@.@.X.d.D.D.d.X
	...
    6934:	3800 4400 4000 4000 4400 3800 0000 0000     .8.D.@.@.D.8....
    6944:	0400 0400 3400 4c00 4400 4400 4c00 3400     .....4.L.D.D.L.4
	...
    695c:	3800 4400 7c00 4000 4400 3800 0000 0000     .8.D.|.@.D.8....
    696c:	0c00 1000 7c00 1000 1000 1000 1000 1000     .....|..........
	...
    6984:	3400 4c00 4400 4400 4c00 3400 0400 7800     .4.L.D.D.L.4...x
    6994:	4000 4000 5800 6400 4400 4400 4400 4400     .@.@.X.d.D.D.D.D
    69a4:	0000 0000 1000 0000 7000 1000 1000 1000     .........p......
    69b4:	1000 1000 0000 0000 1000 0000 7000 1000     .............p..
    69c4:	1000 1000 1000 1000 1000 e000 4000 4000     .............@.@
    69d4:	4800 5000 6000 5000 4800 4400 0000 0000     .H.P.`.P.H.D....
    69e4:	7000 1000 1000 1000 1000 1000 1000 1000     .p..............
	...
    69fc:	7800 5400 5400 5400 5400 5400 0000 0000     .x.T.T.T.T.T....
    6a0c:	0000 0000 5800 6400 4400 4400 4400 4400     .....X.d.D.D.D.D
	...
    6a24:	3800 4400 4400 4400 4400 3800 0000 0000     .8.D.D.D.D.8....
    6a34:	0000 0000 5800 6400 4400 4400 6400 5800     .....X.d.D.D.d.X
    6a44:	4000 4000 0000 0000 3400 4c00 4400 4400     .@.@.....4.L.D.D
    6a54:	4c00 3400 0400 0400 0000 0000 5800 6400     .L.4.........X.d
    6a64:	4000 4000 4000 4000 0000 0000 0000 0000     .@.@.@.@........
    6a74:	3800 4400 3000 0800 4400 3800 0000 0000     .8.D.0...D.8....
    6a84:	2000 2000 7800 2000 2000 2000 2000 1800     . . .x. . . . ..
	...
    6a9c:	4400 4400 4400 4400 4c00 3400 0000 0000     .D.D.D.D.L.4....
    6aac:	0000 0000 4400 4400 2800 2800 2800 1000     .....D.D.(.(.(..
	...
    6ac4:	5400 5400 5400 6c00 2800 2800 0000 0000     .T.T.T.l.(.(....
    6ad4:	0000 0000 4400 2800 1000 1000 2800 4400     .....D.(.....(.D
	...
    6aec:	4400 4400 2800 2800 1000 1000 1000 6000     .D.D.(.(.......`
    6afc:	0000 0000 7c00 0800 1000 2000 4000 7c00     .....|..... .@.|
    6b0c:	0000 0000 1800 1000 1000 1000 2000 2000     ............. . 
    6b1c:	1000 1000 1000 1800 1000 1000 1000 1000     ................
    6b2c:	1000 1000 1000 1000 1000 1000 3000 1000     .............0..
    6b3c:	1000 1000 0800 0800 1000 1000 1000 3000     ...............0
    6b4c:	0000 0000 0000 7400 4c00 0000 0000 0000     .......t.L......
    6b5c:	0000 0000 5057 3a4d 6425 0000 0042 0000     ....WPM:%d..B...
    6b6c:	3a53 3025 6433 0000 3a4c 3025 6433 0000     S:%03d..L:%03d..
    6b7c:	004b 0000 4e49 5550 3a54 0000 4553 444e     K...INPUT:..SEND
    6b8c:	4e49 3a47 0000 0000 5743 0000 654b 6279     ING:....CW..Keyb
    6b9c:	616f 6472 0000 0000 7942 4420 5665 6c6f     oard....By DeVol
    6bac:	2074 6c45 6365 002e 6f6e 7320 7661 6465     t Elec..no saved
    6bbc:	6d20 6773 0000 0000 7953 7473 6d65 6c43      msg....SystemCl
    6bcc:	3a6b 6425 0a0d 0000 6843 7069 4449 253a     k:%d....ChipID:%
    6bdc:	3830 0d78 000a 0000 4742 5636 4b53 6d20     08x.....BG6VSK m
    6bec:	6461 2065 5355 2042 656b 6279 616f 6472     ade USB keyboard
    6bfc:	6520 656c 7463 6972 2063 656b 0d79 0000      electric key...
    6c0c:	4954 204d 4b4f 000d 324c 0000 332a 0000     TIM OK..L2..*3..
    6c1c:	332a 0000 332a 0000 332a 0000 332a 0000     *3..*3..*3..*3..
    6c2c:	332a 0000 332a 0000 332a 0000 332a 0000     *3..*3..*3..*3..
    6c3c:	31fa 0000 31a8 0000 3154 0000 3100 0000     .1...1..T1...1..
    6c4c:	30ac 0000 332a 0000 332a 0000 332a 0000     .0..*3..*3..*3..
    6c5c:	332a 0000 332a 0000 332a 0000 332a 0000     *3..*3..*3..*3..
    6c6c:	332a 0000 332a 0000 332a 0000 3058 0000     *3..*3..*3..X0..
    6c7c:	3004 0000 332a 0000 2fb0 0000 332a 0000     .0..*3.../..*3..
    6c8c:	2f5c 0000                                   \/..

00006c90 <__sf_fake_stderr>:
	...

00006cb0 <__sf_fake_stdin>:
	...

00006cd0 <__sf_fake_stdout>:
	...
    6cf0:	2d23 2b30 0020 0000 6c68 004c 6665 4567     #-0+ ...hlL.efgE
    6d00:	4746 0000 3130 3332 3534 3736 3938 4241     FG..0123456789AB
    6d10:	4443 4645 0000 0000 3130 3332 3534 3736     CDEF....01234567
    6d20:	3938 6261 6463 6665 0000 0000               89abcdef....
